EXPORTS
	?findDllMethod@@YAP6APAXXZPBD@Z @ 1 NONAME ; void * (*)(void) findDllMethod(char const *)
	??0BTRFCOMMServerConnectionFactory@@QAE@XZ @ 2 NONAME ; BTRFCOMMServerConnectionFactory::BTRFCOMMServerConnectionFactory(void)
	??0RFCOMMPushServerConnection@bluetooth@java@@QAE@V?$basic_string@_WV?$char_traits@_W@std@@V?$allocator@_W@2@@std@@0PAVServerConnectionFactoryBase@push@2@@Z @ 3 NONAME ; java::bluetooth::RFCOMMPushServerConnection::RFCOMMPushServerConnection(class std::basic_string<wchar_t, class std::char_traits<wchar_t>, class std::allocator<wchar_t> >, class std::basic_string<wchar_t, class std::char_traits<wchar_t>, class std::allocator<wchar_t> >, class java::push::ServerConnectionFactoryBase *)
	??0RFCOMMServerConnection@bluetooth@java@@QAE@PAVBluetoothFunctionServer@12@@Z @ 4 NONAME ; java::bluetooth::RFCOMMServerConnection::RFCOMMServerConnection(class java::bluetooth::BluetoothFunctionServer *)
	??1BTRFCOMMServerConnectionFactory@@UAE@XZ @ 5 NONAME ; BTRFCOMMServerConnectionFactory::~BTRFCOMMServerConnectionFactory(void)
	??1RFCOMMPushServerConnection@bluetooth@java@@UAE@XZ @ 6 NONAME ; java::bluetooth::RFCOMMPushServerConnection::~RFCOMMPushServerConnection(void)
	??1RFCOMMServerConnection@bluetooth@java@@QAE@XZ @ 7 NONAME ; java::bluetooth::RFCOMMServerConnection::~RFCOMMServerConnection(void)
	?Accept@RFCOMMServerConnection@bluetooth@java@@QAEJXZ @ 8 NONAME ; long java::bluetooth::RFCOMMServerConnection::Accept(void)
	?CloseServer@RFCOMMServerConnection@bluetooth@java@@QAEHXZ @ 9 NONAME ; int java::bluetooth::RFCOMMServerConnection::CloseServer(void)
	?GetRfListeningChannel@RFCOMMServerConnection@bluetooth@java@@QAEHXZ @ 10 NONAME ; int java::bluetooth::RFCOMMServerConnection::GetRfListeningChannel(void)
	?ServerOpen@RFCOMMServerConnection@bluetooth@java@@QAEHHHH@Z @ 11 NONAME ; int java::bluetooth::RFCOMMServerConnection::ServerOpen(int, int, int)
	?asyncAccept@RFCOMMServerConnection@bluetooth@java@@QAEHPAVBluetoothPushEventListener@23@PAVBtUrlParams@23@@Z @ 12 NONAME ; int java::bluetooth::RFCOMMServerConnection::asyncAccept(class java::bluetooth::BluetoothPushEventListener *, class java::bluetooth::BtUrlParams *)
	?close@RFCOMMPushServerConnection@bluetooth@java@@UAEXXZ @ 13 NONAME ; void java::bluetooth::RFCOMMPushServerConnection::close(void)
	?create@BTRFCOMMServerConnectionFactory@@UAEPAVServerConnection@push@java@@ABV?$basic_string@_WV?$char_traits@_W@std@@V?$allocator@_W@2@@std@@@Z @ 14 NONAME ; class java::push::ServerConnection * BTRFCOMMServerConnectionFactory::create(class std::basic_string<wchar_t, class std::char_traits<wchar_t>, class std::allocator<wchar_t> > const &)
	?createSrvConnObj@BTRFCOMMServerConnectionFactory@@UAEPAVServerConnection@push@java@@ABV?$basic_string@_WV?$char_traits@_W@std@@V?$allocator@_W@2@@std@@0@Z @ 15 NONAME ; class java::push::ServerConnection * BTRFCOMMServerConnectionFactory::createSrvConnObj(class std::basic_string<wchar_t, class std::char_traits<wchar_t>, class std::allocator<wchar_t> > const &, class std::basic_string<wchar_t, class std::char_traits<wchar_t>, class std::allocator<wchar_t> > const &)
	?deleteServer@RFCOMMPushServerConnection@bluetooth@java@@QAEXXZ @ 16 NONAME ; void java::bluetooth::RFCOMMPushServerConnection::deleteServer(void)
	?getConnectedClient@RFCOMMPushServerConnection@bluetooth@java@@QAEPAVBluetoothClientConnection@23@XZ @ 17 NONAME ; class java::bluetooth::BluetoothClientConnection * java::bluetooth::RFCOMMPushServerConnection::getConnectedClient(void)
	?getFactory@BTRFCOMMServerConnectionFactory@@SAAAV1@XZ @ 18 NONAME ; class BTRFCOMMServerConnectionFactory & BTRFCOMMServerConnectionFactory::getFactory(void)
	?getFilter@RFCOMMPushServerConnection@bluetooth@java@@UBE?AV?$basic_string@_WV?$char_traits@_W@std@@V?$allocator@_W@2@@std@@XZ @ 19 NONAME ; class std::basic_string<wchar_t, class std::char_traits<wchar_t>, class std::allocator<wchar_t> > java::bluetooth::RFCOMMPushServerConnection::getFilter(void) const
	?getServerObject@RFCOMMPushServerConnection@bluetooth@java@@QAEPAVRFCOMMServerConnection@23@XZ @ 20 NONAME ; class java::bluetooth::RFCOMMServerConnection * java::bluetooth::RFCOMMPushServerConnection::getServerObject(void)
	?getServiceRecordHandle@RFCOMMServerConnection@bluetooth@java@@QAEPAVServiceRecord@23@XZ @ 21 NONAME ; class java::bluetooth::ServiceRecord * java::bluetooth::RFCOMMServerConnection::getServiceRecordHandle(void)
	?getUri@RFCOMMPushServerConnection@bluetooth@java@@UBE?AV?$basic_string@_WV?$char_traits@_W@std@@V?$allocator@_W@2@@std@@XZ @ 22 NONAME ; class std::basic_string<wchar_t, class std::char_traits<wchar_t>, class std::allocator<wchar_t> > java::bluetooth::RFCOMMPushServerConnection::getUri(void) const
	?initializeServiceRecord@RFCOMMServerConnection@bluetooth@java@@QAEHHAAVTUUID@@AAVTDesC8@@_N@Z @ 23 NONAME ; int java::bluetooth::RFCOMMServerConnection::initializeServiceRecord(int, class TUUID &, class TDesC8 &, bool)
	?initializeServiceRecord@RFCOMMServerConnection@bluetooth@java@@QAEHHV?$basic_string@_WV?$char_traits@_W@std@@V?$allocator@_W@2@@std@@0_N@Z @ 24 NONAME ; int java::bluetooth::RFCOMMServerConnection::initializeServiceRecord(int, class std::basic_string<wchar_t, class std::char_traits<wchar_t>, class std::allocator<wchar_t> >, class std::basic_string<wchar_t, class std::char_traits<wchar_t>, class std::allocator<wchar_t> >, bool)
	?isActive@RFCOMMPushServerConnection@bluetooth@java@@QAE_NXZ @ 25 NONAME ; bool java::bluetooth::RFCOMMPushServerConnection::isActive(void)
	?isConnectionAccepted@RFCOMMPushServerConnection@bluetooth@java@@QAE_NXZ @ 26 NONAME ; bool java::bluetooth::RFCOMMPushServerConnection::isConnectionAccepted(void)
	?isCreatedByPush@RFCOMMPushServerConnection@bluetooth@java@@QAE_NXZ @ 27 NONAME ; bool java::bluetooth::RFCOMMPushServerConnection::isCreatedByPush(void)
	?isGOEPConnection@RFCOMMPushServerConnection@bluetooth@java@@QAE_NXZ @ 28 NONAME ; bool java::bluetooth::RFCOMMPushServerConnection::isGOEPConnection(void)
	?isListening@RFCOMMPushServerConnection@bluetooth@java@@QAE_NXZ @ 29 NONAME ; bool java::bluetooth::RFCOMMPushServerConnection::isListening(void)
	?isMultipleSrvConnAllowed@BTRFCOMMServerConnectionFactory@@UAE_NXZ @ 30 NONAME ; bool BTRFCOMMServerConnectionFactory::isMultipleSrvConnAllowed(void)
	?open@RFCOMMPushServerConnection@bluetooth@java@@UAEXPAVConnectionListener@push@3@@Z @ 31 NONAME ; void java::bluetooth::RFCOMMPushServerConnection::open(class java::push::ConnectionListener *)
	?openServer@RFCOMMServerConnection@bluetooth@java@@QAEH_N00@Z @ 32 NONAME ; int java::bluetooth::RFCOMMServerConnection::openServer(bool, bool, bool)
	?restorePersistentRecord@RFCOMMServerConnection@bluetooth@java@@QAEHXZ @ 33 NONAME ; int java::bluetooth::RFCOMMServerConnection::restorePersistentRecord(void)
	?setAcceptMonitor@RFCOMMPushServerConnection@bluetooth@java@@QAEXPAVMonitor@util@3@@Z @ 34 NONAME ; void java::bluetooth::RFCOMMPushServerConnection::setAcceptMonitor(class java::util::Monitor *)
	?setCreatedByPush@RFCOMMPushServerConnection@bluetooth@java@@QAEXXZ @ 35 NONAME ; void java::bluetooth::RFCOMMPushServerConnection::setCreatedByPush(void)
	?setFilter@RFCOMMPushServerConnection@bluetooth@java@@UAEXABV?$basic_string@_WV?$char_traits@_W@std@@V?$allocator@_W@2@@std@@@Z @ 36 NONAME ; void java::bluetooth::RFCOMMPushServerConnection::setFilter(class std::basic_string<wchar_t, class std::char_traits<wchar_t>, class std::allocator<wchar_t> > const &)
	?unsetAcceptMonitor@RFCOMMPushServerConnection@bluetooth@java@@QAEXXZ @ 37 NONAME ; void java::bluetooth::RFCOMMPushServerConnection::unsetAcceptMonitor(void)
	?unsetClearServiceClassBitsFlag@RFCOMMPushServerConnection@bluetooth@java@@QAEXXZ @ 38 NONAME ; void java::bluetooth::RFCOMMPushServerConnection::unsetClearServiceClassBitsFlag(void)

