EXPORTS
	?jni_lookup@@YAP6AXXZPBD@Z @ 1 NONAME ; void (*)(void) jni_lookup(char const *)
	??0ApplicationInfo@runtime@java@@IAE@XZ @ 2 NONAME ; java::runtime::ApplicationInfo::ApplicationInfo(void)
	??0DynamicLibLoader@util@java@@QAE@PBD@Z @ 3 NONAME ; java::util::DynamicLibLoader::DynamicLibLoader(char const *)
	??0FunctionServer@util@java@@QAE@ABV?$basic_string@DV?$char_traits@D@std@@V?$allocator@D@2@@std@@@Z @ 4 NONAME ; java::util::FunctionServer::FunctionServer(class std::basic_string<char, class std::char_traits<char>, class std::allocator<char> > const &)
	??0JStringUtils@@QAE@AAUJNIEnv_@@PAV_jstring@@@Z @ 5 NONAME ; JStringUtils::JStringUtils(struct JNIEnv_ &, class _jstring *)
	??0TEntryExitLog@util@java@@QAE@W4TComponents@@HPBD@Z @ 6 NONAME ; java::util::TEntryExitLog::TEntryExitLog(enum TComponents, int, char const *)
	??0TEntryExitLog@util@java@@QAE@W4TComponents@@PBD@Z @ 7 NONAME ; java::util::TEntryExitLog::TEntryExitLog(enum TComponents, char const *)
	??1ApplicationInfo@runtime@java@@UAE@XZ @ 8 NONAME ; java::runtime::ApplicationInfo::~ApplicationInfo(void)
	??1DynamicLibLoader@util@java@@UAE@XZ @ 9 NONAME ; java::util::DynamicLibLoader::~DynamicLibLoader(void)
	??1FunctionServer@util@java@@UAE@XZ @ 10 NONAME ; java::util::FunctionServer::~FunctionServer(void)
	??1JStringUtils@@QAE@XZ @ 11 NONAME ; JStringUtils::~JStringUtils(void)
	??1TEntryExitLog@util@java@@QAE@XZ @ 12 NONAME ; java::util::TEntryExitLog::~TEntryExitLog(void)
	?ConvertNarrowToWiderL@S60CommonUtils@util@java@@SAHABVTDesC8@@AAPAVTDesC16@@@Z @ 13 NONAME ; int java::util::S60CommonUtils::ConvertNarrowToWiderL(class TDesC8 const &, class TDesC16 * &)
	?ConvertNarrowToWiderLC@S60CommonUtils@util@java@@SAHABVTDesC8@@AAPAVTDesC16@@@Z @ 14 NONAME ; int java::util::S60CommonUtils::ConvertNarrowToWiderLC(class TDesC8 const &, class TDesC16 * &)
	?ConvertWiderToNarrowL@S60CommonUtils@util@java@@SAHABVTDesC16@@AAPAVTDesC8@@@Z @ 15 NONAME ; int java::util::S60CommonUtils::ConvertWiderToNarrowL(class TDesC16 const &, class TDesC8 * &)
	?ConvertWiderToNarrowLC@S60CommonUtils@util@java@@SAHABVTDesC16@@AAPAVTDesC8@@@Z @ 16 NONAME ; int java::util::S60CommonUtils::ConvertWiderToNarrowLC(class TDesC16 const &, class TDesC8 * &)
	?CopyNarrowL@S60CommonUtils@util@java@@SAHABVTDesC8@@AAPAV4@@Z @ 17 NONAME ; int java::util::S60CommonUtils::CopyNarrowL(class TDesC8 const &, class TDesC8 * &)
	?CopyNarrowLC@S60CommonUtils@util@java@@SAHABVTDesC8@@AAPAV4@@Z @ 18 NONAME ; int java::util::S60CommonUtils::CopyNarrowLC(class TDesC8 const &, class TDesC8 * &)
	?CopyToJava@JNIArrayUtils@@SAHAAUJNIEnv_@@PBDHPAV_jbyteArray@@HH@Z @ 19 NONAME ; int JNIArrayUtils::CopyToJava(struct JNIEnv_ &, char const *, int, class _jbyteArray *, int, int)
	?CopyToJava@S60CommonUtils@util@java@@SAHAAUJNIEnv_@@ABVTDesC8@@PAV_jbyteArray@@HH@Z @ 20 NONAME ; int java::util::S60CommonUtils::CopyToJava(struct JNIEnv_ &, class TDesC8 const &, class _jbyteArray *, int, int)
	?CopyToNative@JNIArrayUtils@@SAHAAUJNIEnv_@@PAV_jbyteArray@@HHPAD@Z @ 21 NONAME ; int JNIArrayUtils::CopyToNative(struct JNIEnv_ &, class _jbyteArray *, int, int, char *)
	?CopyToNative@S60CommonUtils@util@java@@SAHAAUJNIEnv_@@PAV_jbyteArray@@HHAAVTDes8@@@Z @ 22 NONAME ; int java::util::S60CommonUtils::CopyToNative(struct JNIEnv_ &, class _jbyteArray *, int, int, class TDes8 &)
	?CopyWiderL@S60CommonUtils@util@java@@SAHABVTDesC16@@AAPAV4@@Z @ 23 NONAME ; int java::util::S60CommonUtils::CopyWiderL(class TDesC16 const &, class TDesC16 * &)
	?CopyWiderLC@S60CommonUtils@util@java@@SAHABVTDesC16@@AAPAV4@@Z @ 24 NONAME ; int java::util::S60CommonUtils::CopyWiderLC(class TDesC16 const &, class TDesC16 * &)
	?ExecuteLeavingFunctorL@MethodCaller@@SAXABVFunctor@@PAVFunctionServer@util@java@@PAH@Z @ 25 NONAME ; void MethodCaller::ExecuteLeavingFunctorL(class Functor const &, class java::util::FunctionServer *, int *)
	?ExecuteRegularFunctor@MethodCaller@@SAXABVFunctor@@PAVFunctionServer@util@java@@PAH@Z @ 26 NONAME ; void MethodCaller::ExecuteRegularFunctor(class Functor const &, class java::util::FunctionServer *, int *)
	?ExecuteTrapingFunctorL@MethodCaller@@SAXABVFunctor@@PAVFunctionServer@util@java@@PAH@Z @ 27 NONAME ; void MethodCaller::ExecuteTrapingFunctorL(class Functor const &, class java::util::FunctionServer *, int *)
	?JavaTimeToTTime@S60CommonUtils@util@java@@SA?AVTTime@@_J@Z @ 28 NONAME ; class TTime java::util::S60CommonUtils::JavaTimeToTTime(long long)
	?Log@Logger@util@java@@SAXW4TComponents@@W4TLogLevels@@PBDZZ @ 29 NONAME ; void java::util::Logger::Log(enum TComponents, enum TLogLevels, char const *, ...)
	?NativeToJavaString@S60CommonUtils@util@java@@SAPAV_jstring@@AAUJNIEnv_@@ABVTDesC16@@@Z @ 30 NONAME ; class _jstring * java::util::S60CommonUtils::NativeToJavaString(struct JNIEnv_ &, class TDesC16 const &)
	?NativeToJavaStringArray@S60CommonUtils@util@java@@SAPAV_jobjectArray@@AAUJNIEnv_@@ABV?$RPointerArray@VHBufC16@@@@@Z @ 31 NONAME ; class _jobjectArray * java::util::S60CommonUtils::NativeToJavaStringArray(struct JNIEnv_ &, class RPointerArray<class HBufC16> const &)
	?NewSessionL@OsFunctionServer@util@java@@EBEPAVCSession2@@ABVTVersion@@ABVRMessage2@@@Z @ 32 NONAME ; class CSession2 * java::util::OsFunctionServer::NewSessionL(class TVersion const &, class RMessage2 const &) const
	?RunError@OsFunctionServer@util@java@@MAEHH@Z @ 33 NONAME ; int java::util::OsFunctionServer::RunError(int)
	?TTimeToJavaTime@S60CommonUtils@util@java@@SA_JVTTime@@@Z @ 34 NONAME ; long long java::util::S60CommonUtils::TTimeToJavaTime(class TTime)
	?TUidToUid@@YAAAVUid@util@java@@ABVTUid@@AAV123@@Z @ 35 NONAME ; class java::util::Uid & TUidToUid(class TUid const &, class java::util::Uid &)
	?WStringToJavaString@JNIArrayUtils@@SAPAV_jstring@@AAUJNIEnv_@@PB_WH@Z @ 36 NONAME ; class _jstring * JNIArrayUtils::WStringToJavaString(struct JNIEnv_ &, wchar_t const *, int)
	?attachToVm@FunctionServer@util@java@@QAEXAAUJNIEnv_@@PAV_jobject@@@Z @ 37 NONAME ; void java::util::FunctionServer::attachToVm(struct JNIEnv_ &, class _jobject *)
	?base64decode@JavaCommonUtils@util@java@@SA?AV?$basic_string@DV?$char_traits@D@std@@V?$allocator@D@2@@std@@ABV45@@Z @ 38 NONAME ; class std::basic_string<char, class std::char_traits<char>, class std::allocator<char> > java::util::JavaCommonUtils::base64decode(class std::basic_string<char, class std::char_traits<char>, class std::allocator<char> > const &)
	?base64encode@JavaCommonUtils@util@java@@SA?AV?$basic_string@DV?$char_traits@D@std@@V?$allocator@D@2@@std@@ABV45@@Z @ 39 NONAME ; class std::basic_string<char, class std::char_traits<char>, class std::allocator<char> > java::util::JavaCommonUtils::base64encode(class std::basic_string<char, class std::char_traits<char>, class std::allocator<char> > const &)
	?closeLib@DynamicLibLoader@util@java@@QAEXXZ @ 40 NONAME ; void java::util::DynamicLibLoader::closeLib(void)
	?createAndStartSrv@FunctionServer@util@java@@AAEXXZ @ 41 NONAME ; void java::util::FunctionServer::createAndStartSrv(void)
	?createMonitor@Monitor@util@java@@SAPAV123@XZ @ 42 NONAME ; class java::util::Monitor * java::util::Monitor::createMonitor(void)
	?createServerToCurrentThread@FunctionServer@util@java@@QAEXXZ @ 43 NONAME ; void java::util::FunctionServer::createServerToCurrentThread(void)
	?createServerToNewThread@FunctionServer@util@java@@QAEXXZ @ 44 NONAME ; void java::util::FunctionServer::createServerToNewThread(void)
	?desToWstring@@YAPA_WAAVTPtr16@@@Z @ 45 NONAME ; wchar_t * desToWstring(class TPtr16 &)
	?detachFromVm@FunctionServer@util@java@@QAEXXZ @ 46 NONAME ; void java::util::FunctionServer::detachFromVm(void)
	?dlclose@JavaOsLayer@util@java@@SAHPAX@Z @ 47 NONAME ; int java::util::JavaOsLayer::dlclose(void *)
	?dlopen@JavaOsLayer@util@java@@SAPAXPBD@Z @ 48 NONAME ; void * java::util::JavaOsLayer::dlopen(char const *)
	?dlsym@JavaOsLayer@util@java@@SAPAXPAXPBD_N@Z @ 49 NONAME ; void * java::util::JavaOsLayer::dlsym(void *, char const *, bool)
	?doServerSideClean@FunctionServer@util@java@@MAEXXZ @ 50 NONAME ; void java::util::FunctionServer::doServerSideClean(void)
	?doServerSideInit@FunctionServer@util@java@@MAEXXZ @ 51 NONAME ; void java::util::FunctionServer::doServerSideInit(void)
	?findMethod@@YAP6APAXXZPBDQBUFuncTable@@H@Z @ 52 NONAME ; void * (*)(void) findMethod(char const *, struct FuncTable const * const, int)
	?getBinRoot@JavaOsLayer@util@java@@SAAAV?$basic_string@DV?$char_traits@D@std@@V?$allocator@D@2@@std@@AAV45@_N@Z @ 53 NONAME ; class std::basic_string<char, class std::char_traits<char>, class std::allocator<char> > & java::util::JavaOsLayer::getBinRoot(class std::basic_string<char, class std::char_traits<char>, class std::allocator<char> > &, bool)
	?getFunction@DynamicLibLoader@util@java@@QAEPAXPBD_N@Z @ 54 NONAME ; void * java::util::DynamicLibLoader::getFunction(char const *, bool)
	?getInstance@ApplicationInfo@runtime@java@@SAABV123@XZ @ 55 NONAME ; class java::runtime::ApplicationInfo const & java::runtime::ApplicationInfo::getInstance(void)
	?getJavaCaptainRoot@JavaOsLayer@util@java@@SAAAV?$basic_string@DV?$char_traits@D@std@@V?$allocator@D@2@@std@@AAV45@_N@Z @ 56 NONAME ; class std::basic_string<char, class std::char_traits<char>, class std::allocator<char> > & java::util::JavaOsLayer::getJavaCaptainRoot(class std::basic_string<char, class std::char_traits<char>, class std::allocator<char> > &, bool)
	?getMidpDrive@JavaOsLayer@util@java@@SA?AVDriveId@23@XZ @ 57 NONAME ; class java::util::DriveId java::util::JavaOsLayer::getMidpDrive(void)
	?getMidpRoot@JavaOsLayer@util@java@@SAAAV?$basic_string@DV?$char_traits@D@std@@V?$allocator@D@2@@std@@AAV45@_N@Z @ 58 NONAME ; class std::basic_string<char, class std::char_traits<char>, class std::allocator<char> > & java::util::JavaOsLayer::getMidpRoot(class std::basic_string<char, class std::char_traits<char>, class std::allocator<char> > &, bool)
	?getOsSpecificJavaRootPath@JavaOsLayer@util@java@@SAXAAV?$basic_string@DV?$char_traits@D@std@@V?$allocator@D@2@@std@@@Z @ 59 NONAME ; void java::util::JavaOsLayer::getOsSpecificJavaRootPath(class std::basic_string<char, class std::char_traits<char>, class std::allocator<char> > &)
	?getOsSpecificLibName@JavaOsLayer@util@java@@SAXAAV?$basic_string@DV?$char_traits@D@std@@V?$allocator@D@2@@std@@PBD@Z @ 60 NONAME ; void java::util::JavaOsLayer::getOsSpecificLibName(class std::basic_string<char, class std::char_traits<char>, class std::allocator<char> > &, char const *)
	?getProperty@JavaIniFileUtils@util@java@@SAHABV?$basic_string@DV?$char_traits@D@std@@V?$allocator@D@2@@std@@@Z @ 61 NONAME ; int java::util::JavaIniFileUtils::getProperty(class std::basic_string<char, class std::char_traits<char>, class std::allocator<char> > const &)
	?getResRoot@JavaOsLayer@util@java@@SAAAV?$basic_string@DV?$char_traits@D@std@@V?$allocator@D@2@@std@@AAV45@_N@Z @ 62 NONAME ; class std::basic_string<char, class std::char_traits<char>, class std::allocator<char> > & java::util::JavaOsLayer::getResRoot(class std::basic_string<char, class std::char_traits<char>, class std::allocator<char> > &, bool)
	?intToString@JavaCommonUtils@util@java@@SA?AV?$basic_string@DV?$char_traits@D@std@@V?$allocator@D@2@@std@@ABH@Z @ 63 NONAME ; class std::basic_string<char, class std::char_traits<char>, class std::allocator<char> > java::util::JavaCommonUtils::intToString(int const &)
	?intToWstring@JavaCommonUtils@util@java@@SA?AV?$basic_string@_WV?$char_traits@_W@std@@V?$allocator@_W@2@@std@@ABH@Z @ 64 NONAME ; class std::basic_string<wchar_t, class std::char_traits<wchar_t>, class std::allocator<wchar_t> > java::util::JavaCommonUtils::intToWstring(int const &)
	?jstringToWstring@JniUtils@util@java@@SA?AV?$basic_string@_WV?$char_traits@_W@std@@V?$allocator@_W@2@@std@@PAUJNIEnv_@@ABQAV_jstring@@@Z @ 65 NONAME ; class std::basic_string<wchar_t, class std::char_traits<wchar_t>, class std::allocator<wchar_t> > java::util::JniUtils::jstringToWstring(struct JNIEnv_ *, class _jstring * const const &)
	?loadAndGetFunction@DynamicLibLoader@util@java@@SAPAV123@AAPAXPBD1@Z @ 66 NONAME ; class java::util::DynamicLibLoader * java::util::DynamicLibLoader::loadAndGetFunction(void * &, char const *, char const *)
	?longLongToString@JavaCommonUtils@util@java@@SA?AV?$basic_string@DV?$char_traits@D@std@@V?$allocator@D@2@@std@@AB_J@Z @ 67 NONAME ; class std::basic_string<char, class std::char_traits<char>, class std::allocator<char> > java::util::JavaCommonUtils::longLongToString(long long const &)
	?longLongToWstring@JavaCommonUtils@util@java@@SA?AV?$basic_string@_WV?$char_traits@_W@std@@V?$allocator@_W@2@@std@@AB_J@Z @ 68 NONAME ; class std::basic_string<wchar_t, class std::char_traits<wchar_t>, class std::allocator<wchar_t> > java::util::JavaCommonUtils::longLongToWstring(long long const &)
	?notify@Monitor@util@java@@QAEHXZ @ 69 NONAME ; int java::util::Monitor::notify(void)
	?openLib@DynamicLibLoader@util@java@@QAEXXZ @ 70 NONAME ; void java::util::DynamicLibLoader::openLib(void)
	?setApplicationInfoProvider@util@java@@YAXABVApplicationInfo@runtime@2@@Z @ 71 NONAME ; void java::util::setApplicationInfoProvider(class java::runtime::ApplicationInfo const &)
	?setProperty@JavaIniFileUtils@util@java@@SAXABV?$basic_string@DV?$char_traits@D@std@@V?$allocator@D@2@@std@@H@Z @ 72 NONAME ; void java::util::JavaIniFileUtils::setProperty(class std::basic_string<char, class std::char_traits<char>, class std::allocator<char> > const &, int)
	?startServer@FunctionServer@util@java@@MAEXXZ @ 73 NONAME ; void java::util::FunctionServer::startServer(void)
	?startUpTrace@JavaOsLayer@util@java@@SAXABV?$basic_string@DV?$char_traits@D@std@@V?$allocator@D@2@@std@@HH@Z @ 74 NONAME ; void java::util::JavaOsLayer::startUpTrace(class std::basic_string<char, class std::char_traits<char>, class std::allocator<char> > const &, int, int)
	?stopServer@FunctionServer@util@java@@QAEXXZ @ 75 NONAME ; void java::util::FunctionServer::stopServer(void)
	?stopServerInsideServerThread@FunctionServer@util@java@@QAEX_N@Z @ 76 NONAME ; void java::util::FunctionServer::stopServerInsideServerThread(bool)
	?stringToDes@@YAPAVHBufC16@@PBD@Z @ 77 NONAME ; class HBufC16 * stringToDes(char const *)
	?stringToInt@JavaCommonUtils@util@java@@SAHABV?$basic_string@DV?$char_traits@D@std@@V?$allocator@D@2@@std@@@Z @ 78 NONAME ; int java::util::JavaCommonUtils::stringToInt(class std::basic_string<char, class std::char_traits<char>, class std::allocator<char> > const &)
	?stringToLongLong@JavaCommonUtils@util@java@@SA_JABV?$basic_string@DV?$char_traits@D@std@@V?$allocator@D@2@@std@@@Z @ 79 NONAME ; long long java::util::JavaCommonUtils::stringToLongLong(class std::basic_string<char, class std::char_traits<char>, class std::allocator<char> > const &)
	?throwNewException@JniUtils@util@java@@SAXPAUJNIEnv_@@ABV?$basic_string@DV?$char_traits@D@std@@V?$allocator@D@2@@std@@1@Z @ 80 NONAME ; void java::util::JniUtils::throwNewException(struct JNIEnv_ *, class std::basic_string<char, class std::char_traits<char>, class std::allocator<char> > const &, class std::basic_string<char, class std::char_traits<char>, class std::allocator<char> > const &)
	?trimWstring@JavaCommonUtils@util@java@@SAXAAV?$basic_string@_WV?$char_traits@_W@std@@V?$allocator@_W@2@@std@@AB_W@Z @ 81 NONAME ; void java::util::JavaCommonUtils::trimWstring(class std::basic_string<wchar_t, class std::char_traits<wchar_t>, class std::allocator<wchar_t> > &, wchar_t const &)
	?uidToTUid@@YAHABVUid@util@java@@AAVTUid@@@Z @ 82 NONAME ; int uidToTUid(class java::util::Uid const &, class TUid &)
	?utf8ToWstring@JavaCommonUtils@util@java@@SA?AV?$basic_string@_WV?$char_traits@_W@std@@V?$allocator@_W@2@@std@@PBD@Z @ 83 NONAME ; class std::basic_string<wchar_t, class std::char_traits<wchar_t>, class std::allocator<wchar_t> > java::util::JavaCommonUtils::utf8ToWstring(char const *)
	?vmAttached@FunctionServer@util@java@@MAEXXZ @ 84 NONAME ; void java::util::FunctionServer::vmAttached(void)
	?vmDetached@FunctionServer@util@java@@MAEXXZ @ 85 NONAME ; void java::util::FunctionServer::vmDetached(void)
	?wait@Monitor@util@java@@QAEHH@Z @ 86 NONAME ; int java::util::Monitor::wait(int)
	?wstringToAppVersion@@YA?AVTAppVersion@@ABV?$basic_string@_WV?$char_traits@_W@std@@V?$allocator@_W@2@@std@@@Z @ 87 NONAME ; class TAppVersion wstringToAppVersion(class std::basic_string<wchar_t, class std::char_traits<wchar_t>, class std::allocator<wchar_t> > const &)
	?wstringToBuf@@YAPAVHBufC16@@ABV?$basic_string@_WV?$char_traits@_W@std@@V?$allocator@_W@2@@std@@@Z @ 88 NONAME ; class HBufC16 * wstringToBuf(class std::basic_string<wchar_t, class std::char_traits<wchar_t>, class std::allocator<wchar_t> > const &)
	?wstringToDes@S60CommonUtils@util@java@@SAPAVHBufC16@@PB_W@Z @ 89 NONAME ; class HBufC16 * java::util::S60CommonUtils::wstringToDes(wchar_t const *)
	?wstringToInt@JavaCommonUtils@util@java@@SAHABV?$basic_string@_WV?$char_traits@_W@std@@V?$allocator@_W@2@@std@@@Z @ 90 NONAME ; int java::util::JavaCommonUtils::wstringToInt(class std::basic_string<wchar_t, class std::char_traits<wchar_t>, class std::allocator<wchar_t> > const &)
	?wstringToJstring@JniUtils@util@java@@SAPAV_jstring@@PAUJNIEnv_@@ABV?$basic_string@_WV?$char_traits@_W@std@@V?$allocator@_W@2@@std@@@Z @ 91 NONAME ; class _jstring * java::util::JniUtils::wstringToJstring(struct JNIEnv_ *, class std::basic_string<wchar_t, class std::char_traits<wchar_t>, class std::allocator<wchar_t> > const &)
	?wstringToLongLong@JavaCommonUtils@util@java@@SA_JABV?$basic_string@_WV?$char_traits@_W@std@@V?$allocator@_W@2@@std@@@Z @ 92 NONAME ; long long java::util::JavaCommonUtils::wstringToLongLong(class std::basic_string<wchar_t, class std::char_traits<wchar_t>, class std::allocator<wchar_t> > const &)
	?wstringToUtf8@JavaCommonUtils@util@java@@SAPADABV?$basic_string@_WV?$char_traits@_W@std@@V?$allocator@_W@2@@std@@@Z @ 93 NONAME ; char * java::util::JavaCommonUtils::wstringToUtf8(class std::basic_string<wchar_t, class std::char_traits<wchar_t>, class std::allocator<wchar_t> > const &)
	??0DynamicLibLoader@util@java@@QAE@PBD_N@Z @ 94 NONAME ; java::util::DynamicLibLoader::DynamicLibLoader(char const *, bool)
	?ResourceLanguageFileNameL@S60CommonUtils@util@java@@SA?AV?$TBuf@$0BAA@@@ABVTDesC16@@@Z @ 95 NONAME ; class TBuf<256> java::util::S60CommonUtils::ResourceLanguageFileNameL(class TDesC16 const &)
	?VerifiedFileNameL@S60CommonUtils@util@java@@SA?AV?$TBuf@$0BAA@@@ABVTDesC16@@@Z @ 96 NONAME ; class TBuf<256> java::util::S60CommonUtils::VerifiedFileNameL(class TDesC16 const &)
	?bootClassPath@JavaOsLayer@util@java@@SAXAAV?$list@V?$basic_string@_WV?$char_traits@_W@std@@V?$allocator@_W@2@@std@@V?$allocator@V?$basic_string@_WV?$char_traits@_W@std@@V?$allocator@_W@2@@std@@@2@@std@@0H@Z @ 97 NONAME ; void java::util::JavaOsLayer::bootClassPath(class std::list<class std::basic_string<wchar_t, class std::char_traits<wchar_t>, class std::allocator<wchar_t> >, class std::allocator<class std::basic_string<wchar_t, class std::char_traits<wchar_t>, class std::allocator<wchar_t> > > > &, class std::list<class std::basic_string<wchar_t, class std::char_traits<wchar_t>, class std::allocator<wchar_t> >, class std::allocator<class std::basic_string<wchar_t, class std::char_traits<wchar_t>, class std::allocator<wchar_t> > > > &, int)
	?percentDecode@JavaCommonUtils@util@java@@SA?AV?$basic_string@_WV?$char_traits@_W@std@@V?$allocator@_W@2@@std@@ABV45@@Z @ 98 NONAME ; class std::basic_string<wchar_t, class std::char_traits<wchar_t>, class std::allocator<wchar_t> > java::util::JavaCommonUtils::percentDecode(class std::basic_string<wchar_t, class std::char_traits<wchar_t>, class std::allocator<wchar_t> > const &)
	??0CRedirectServer@util@java@@QAE@AAVDiagnosticListener@debug@2@@Z @ 99 NONAME ; java::util::CRedirectServer::CRedirectServer(class java::debug::DiagnosticListener &)
	??0Redirector@util@java@@QAE@XZ @ 100 NONAME ; java::util::Redirector::Redirector(void)
	??1CRedirectServer@util@java@@UAE@XZ @ 101 NONAME ; java::util::CRedirectServer::~CRedirectServer(void)
	??1Redirector@util@java@@UAE@XZ @ 102 NONAME ; java::util::Redirector::~Redirector(void)
	?StartL@CRedirectServer@util@java@@UAEXXZ @ 103 NONAME ; void java::util::CRedirectServer::StartL(void)
	?close@Redirector@util@java@@QAEXXZ @ 104 NONAME ; void java::util::Redirector::close(void)
	?connect@Redirector@util@java@@QAEHXZ @ 105 NONAME ; int java::util::Redirector::connect(void)
	?log@Redirector@util@java@@SAHABVTDesC8@@@Z @ 106 NONAME ; int java::util::Redirector::log(class TDesC8 const &)
	?systemErr@Redirector@util@java@@QAEHABVTDesC8@@@Z @ 107 NONAME ; int java::util::Redirector::systemErr(class TDesC8 const &)
	?systemOut@Redirector@util@java@@QAEHABVTDesC8@@@Z @ 108 NONAME ; int java::util::Redirector::systemOut(class TDesC8 const &)
	?toString@ExceptionBase@util@java@@UBE?AV?$basic_string@DV?$char_traits@D@std@@V?$allocator@D@2@@std@@XZ @ 109 NONAME ; class std::basic_string<char, class std::char_traits<char>, class std::allocator<char> > java::util::ExceptionBase::toString(void) const
	??1LibraryLoaderException@util@java@@UAE@XZ @ 110 NONAME ; java::util::LibraryLoaderException::~LibraryLoaderException(void)
	??0ExceptionBase@util@java@@QAE@HHABV?$basic_string@_WV?$char_traits@_W@std@@V?$allocator@_W@2@@std@@ABV?$basic_string@DV?$char_traits@D@std@@V?$allocator@D@2@@4@1H@Z @ 111 NONAME ; java::util::ExceptionBase::ExceptionBase(int, int, class std::basic_string<wchar_t, class std::char_traits<wchar_t>, class std::allocator<wchar_t> > const &, class std::basic_string<char, class std::char_traits<char>, class std::allocator<char> > const &, class std::basic_string<char, class std::char_traits<char>, class std::allocator<char> > const &, int)
	??0ExceptionBase@util@java@@QAE@HHABV?$basic_string@DV?$char_traits@D@std@@V?$allocator@D@2@@std@@00H@Z @ 112 NONAME ; java::util::ExceptionBase::ExceptionBase(int, int, class std::basic_string<char, class std::char_traits<char>, class std::allocator<char> > const &, class std::basic_string<char, class std::char_traits<char>, class std::allocator<char> > const &, class std::basic_string<char, class std::char_traits<char>, class std::allocator<char> > const &, int)
	?what@ExceptionBase@util@java@@UBEPBDXZ @ 113 NONAME ; char const * java::util::ExceptionBase::what(void) const
	??0ExceptionBase@util@java@@QAE@ABV012@@Z @ 114 NONAME ; java::util::ExceptionBase::ExceptionBase(class java::util::ExceptionBase const &)
	??0LibraryLoaderException@util@java@@QAE@HHABV?$basic_string@DV?$char_traits@D@std@@V?$allocator@D@2@@std@@00H@Z @ 115 NONAME ; java::util::LibraryLoaderException::LibraryLoaderException(int, int, class std::basic_string<char, class std::char_traits<char>, class std::allocator<char> > const &, class std::basic_string<char, class std::char_traits<char>, class std::allocator<char> > const &, class std::basic_string<char, class std::char_traits<char>, class std::allocator<char> > const &, int)
	??0ExceptionBase@util@java@@QAE@HABV?$basic_string@DV?$char_traits@D@std@@V?$allocator@D@2@@std@@00H@Z @ 116 NONAME ; java::util::ExceptionBase::ExceptionBase(int, class std::basic_string<char, class std::char_traits<char>, class std::allocator<char> > const &, class std::basic_string<char, class std::char_traits<char>, class std::allocator<char> > const &, class std::basic_string<char, class std::char_traits<char>, class std::allocator<char> > const &, int)
	??0LibraryLoaderException@util@java@@QAE@HABV?$basic_string@DV?$char_traits@D@std@@V?$allocator@D@2@@std@@00H@Z @ 117 NONAME ; java::util::LibraryLoaderException::LibraryLoaderException(int, class std::basic_string<char, class std::char_traits<char>, class std::allocator<char> > const &, class std::basic_string<char, class std::char_traits<char>, class std::allocator<char> > const &, class std::basic_string<char, class std::char_traits<char>, class std::allocator<char> > const &, int)
	??_EExceptionBase@util@java@@UAE@I@Z @ 118 NONAME ; java::util::ExceptionBase::~ExceptionBase(unsigned int)
	??0ExceptionBase@util@java@@QAE@ABV?$basic_string@_WV?$char_traits@_W@std@@V?$allocator@_W@2@@std@@ABV?$basic_string@DV?$char_traits@D@std@@V?$allocator@D@2@@4@1H@Z @ 119 NONAME ; java::util::ExceptionBase::ExceptionBase(class std::basic_string<wchar_t, class std::char_traits<wchar_t>, class std::allocator<wchar_t> > const &, class std::basic_string<char, class std::char_traits<char>, class std::allocator<char> > const &, class std::basic_string<char, class std::char_traits<char>, class std::allocator<char> > const &, int)
	??_ELibraryLoaderException@util@java@@UAE@I@Z @ 120 NONAME ; java::util::LibraryLoaderException::~LibraryLoaderException(unsigned int)
	??1ExceptionBase@util@java@@UAE@XZ @ 121 NONAME ; java::util::ExceptionBase::~ExceptionBase(void)
	??0ExceptionBase@util@java@@QAE@HABV?$basic_string@_WV?$char_traits@_W@std@@V?$allocator@_W@2@@std@@ABV?$basic_string@DV?$char_traits@D@std@@V?$allocator@D@2@@4@1H@Z @ 122 NONAME ; java::util::ExceptionBase::ExceptionBase(int, class std::basic_string<wchar_t, class std::char_traits<wchar_t>, class std::allocator<wchar_t> > const &, class std::basic_string<char, class std::char_traits<char>, class std::allocator<char> > const &, class std::basic_string<char, class std::char_traits<char>, class std::allocator<char> > const &, int)
	??0ExceptionBase@util@java@@QAE@ABV?$basic_string@DV?$char_traits@D@std@@V?$allocator@D@2@@std@@00H@Z @ 123 NONAME ; java::util::ExceptionBase::ExceptionBase(class std::basic_string<char, class std::char_traits<char>, class std::allocator<char> > const &, class std::basic_string<char, class std::char_traits<char>, class std::allocator<char> > const &, class std::basic_string<char, class std::char_traits<char>, class std::allocator<char> > const &, int)
	??0LibraryLoaderException@util@java@@QAE@ABV012@@Z @ 124 NONAME ; java::util::LibraryLoaderException::LibraryLoaderException(class java::util::LibraryLoaderException const &)
	??0RuntimeException@runtime@java@@QAE@ABV012@@Z @ 125 NONAME ; java::runtime::RuntimeException::RuntimeException(class java::runtime::RuntimeException const &)
	??0RuntimeException@runtime@java@@QAE@ABV?$basic_string@DV?$char_traits@D@std@@V?$allocator@D@2@@std@@00H@Z @ 126 NONAME ; java::runtime::RuntimeException::RuntimeException(class std::basic_string<char, class std::char_traits<char>, class std::allocator<char> > const &, class std::basic_string<char, class std::char_traits<char>, class std::allocator<char> > const &, class std::basic_string<char, class std::char_traits<char>, class std::allocator<char> > const &, int)
	??_ERuntimeException@runtime@java@@UAE@I@Z @ 127 NONAME ; java::runtime::RuntimeException::~RuntimeException(unsigned int)
	??1RuntimeException@runtime@java@@UAE@XZ @ 128 NONAME ; java::runtime::RuntimeException::~RuntimeException(void)
	?toString@RuntimeException@runtime@java@@UBE?AV?$basic_string@DV?$char_traits@D@std@@V?$allocator@D@2@@std@@XZ @ 129 NONAME ; class std::basic_string<char, class std::char_traits<char>, class std::allocator<char> > java::runtime::RuntimeException::toString(void) const
	?wbase64encode@JavaCommonUtils@util@java@@SA?AV?$basic_string@_WV?$char_traits@_W@std@@V?$allocator@_W@2@@std@@ABV45@@Z @ 130 NONAME ; class std::basic_string<wchar_t, class std::char_traits<wchar_t>, class std::allocator<wchar_t> > java::util::JavaCommonUtils::wbase64encode(class std::basic_string<wchar_t, class std::char_traits<wchar_t>, class std::allocator<wchar_t> > const &)

