EXPORTS
	?jni_lookup@@YAP6AXXZPBD@Z @ 1 NONAME ; void (*)(void) jni_lookup(char const *)
	?CreateClientL@SWT@@YAPAVMSwtClient@@XZ @ 2 NONAME ; class MSwtClient * SWT::CreateClientL(void)
	?IsFocusControl@ASwtControlBase@@UAEHXZ @ 3 NONAME ; int ASwtControlBase::IsFocusControl(void)
	?SetBackgroundL@ASwtControlBase@@UAEXPBVMSwtColor@@@Z @ 4 NONAME ; void ASwtControlBase::SetBackgroundL(class MSwtColor const *)
	?HandleFocusChanged@ASwtControlBase@@IAEXW4TDrawNow@@@Z @ 5 NONAME ; void ASwtControlBase::HandleFocusChanged(enum TDrawNow)
	?Dispose@ASwtControlBase@@UAEPAV_jweak@@XZ @ 6 NONAME ; class _jweak * ASwtControlBase::Dispose(void)
	?IsKeyUsed@ASwtControlBase@@UBEHI@Z @ 7 NONAME ; int ASwtControlBase::IsKeyUsed(unsigned int) const
	?BorderInnerRect@ASwtControlBase@@MBE?AVTRect@@XZ @ 8 NONAME ; class TRect ASwtControlBase::BorderInnerRect(void) const
	?PostMouseEventL@ASwtControlBase@@UAEXABUTPointerEvent@@@Z @ 9 NONAME ; void ASwtControlBase::PostMouseEventL(struct TPointerEvent const &)
	?GetBorderWidth@ASwtControlBase@@UBEHXZ @ 10 NONAME ; int ASwtControlBase::GetBorderWidth(void) const
	?GetControlMenu@ASwtControlBase@@UBEPBVMSwtMenu@@XZ @ 11 NONAME ; class MSwtMenu const * ASwtControlBase::GetControlMenu(void) const
	?GetBackground@ASwtControlBase@@UBE?AVTRgb@@XZ @ 12 NONAME ; class TRgb ASwtControlBase::GetBackground(void) const
	?Redraw@ASwtControlBase@@UAEXXZ @ 13 NONAME ; void ASwtControlBase::Redraw(void)
	?GetPopupMenu@ASwtControlBase@@UBEPBVMSwtMenu@@XZ @ 14 NONAME ; class MSwtMenu const * ASwtControlBase::GetPopupMenu(void) const
	?SetEnabled@ASwtControlBase@@UAEXH@Z @ 15 NONAME ; void ASwtControlBase::SetEnabled(int)
	?Flags@ASwtControlBase@@UBEIXZ @ 16 NONAME ; unsigned int ASwtControlBase::Flags(void) const
	?HandlePositionChanged@ASwtControlBase@@IAEXXZ @ 17 NONAME ; void ASwtControlBase::HandlePositionChanged(void)
	?UiUtils@ASwtControlBase@@IBEAAVCSwtUiUtils@@XZ @ 18 NONAME ; class CSwtUiUtils & ASwtControlBase::UiUtils(void) const
	?Paint@ASwtControlBase@@UBEXABVTRect@@HPAVMSwtGc@@PAHHPAVHBufC16@@@Z @ 19 NONAME ; void ASwtControlBase::Paint(class TRect const &, int, class MSwtGc *, int *, int, class HBufC16 *) const
	?Style@ASwtControlBase@@UBEHXZ @ 20 NONAME ; int ASwtControlBase::Style(void) const
	?HasDoNotDrawFlag@ASwtControlBase@@UBEHXZ @ 21 NONAME ; int ASwtControlBase::HasDoNotDrawFlag(void) const
	?DoDelete@ASwtControlBase@@MAEXXZ @ 22 NONAME ; void ASwtControlBase::DoDelete(void)
	?AddToControlStackL@ASwtControlBase@@UAEXH@Z @ 23 NONAME ; void ASwtControlBase::AddToControlStackL(int)
	?DoPaint@ASwtControlBase@@MBEXABVTRect@@@Z @ 24 NONAME ; void ASwtControlBase::DoPaint(class TRect const &) const
	?FocusBackgroundPolicy@ASwtControlBase@@UBEHXZ @ 25 NONAME ; int ASwtControlBase::FocusBackgroundPolicy(void) const
	?IsDescentOf@ASwtControlBase@@UBEHABVMSwtControl@@@Z @ 26 NONAME ; int ASwtControlBase::IsDescentOf(class MSwtControl const &) const
	?IsDefaultBackgroundUse@ASwtControlBase@@UBEHXZ @ 27 NONAME ; int ASwtControlBase::IsDefaultBackgroundUse(void) const
	?GetForeground@ASwtControlBase@@UBE?AVTRgb@@XZ @ 28 NONAME ; class TRgb ASwtControlBase::GetForeground(void) const
	?GetLocation@ASwtControlBase@@UBE?AVTPoint@@XZ @ 29 NONAME ; class TPoint ASwtControlBase::GetLocation(void) const
	?GetTopCaptionedControl@ASwtControlBase@@UBEPAVMSwtCaptionedControl@@XZ @ 30 NONAME ; class MSwtCaptionedControl * ASwtControlBase::GetTopCaptionedControl(void) const
	?GetVisible@ASwtControlBase@@UBEHXZ @ 31 NONAME ; int ASwtControlBase::GetVisible(void) const
	??1ASwtControlBase@@MAE@XZ @ 32 NONAME ; ASwtControlBase::~ASwtControlBase(void)
	?Update@ASwtControlBase@@UBEXXZ @ 33 NONAME ; void ASwtControlBase::Update(void) const
	?MSKSelCmdEnabled@ASwtControlBase@@UBEHXZ @ 34 NONAME ; int ASwtControlBase::MSKSelCmdEnabled(void) const
	?IsFocusable@ASwtControlBase@@UBEHH@Z @ 35 NONAME ; int ASwtControlBase::IsFocusable(int) const
	??0ASwtControlBase@@IAE@AAVMSwtDisplay@@PAV_jweak@@PAVMSwtComposite@@H@Z @ 36 NONAME ; ASwtControlBase::ASwtControlBase(class MSwtDisplay &, class _jweak *, class MSwtComposite *, int)
	?HandleUpdate@ASwtControlBase@@UAEXXZ @ 37 NONAME ; void ASwtControlBase::HandleUpdate(void)
	?GetWidgetSize@ASwtControlBase@@UBE?AVTSize@@XZ @ 38 NONAME ; class TSize ASwtControlBase::GetWidgetSize(void) const
	?CbaButtonIsUsed@ASwtControlBase@@UBEHH@Z @ 39 NONAME ; int ASwtControlBase::CbaButtonIsUsed(int) const
	?IsLongTapAnimationCandidate@ASwtControlBase@@UBEHABUTPointerEvent@@@Z @ 40 NONAME ; int ASwtControlBase::IsLongTapAnimationCandidate(struct TPointerEvent const &) const
	?DefaultFont@ASwtControlBase@@MBEABVMSwtFont@@XZ @ 41 NONAME ; class MSwtFont const & ASwtControlBase::DefaultFont(void) const
	?SetLocation@ASwtControlBase@@UAEXABVTPoint@@@Z @ 42 NONAME ; void ASwtControlBase::SetLocation(class TPoint const &)
	??1CSwtServer@@UAE@XZ @ 43 NONAME ; CSwtServer::~CSwtServer(void)
	?IsPaintingUrgently@ASwtControlBase@@UBEHXZ @ 44 NONAME ; int ASwtControlBase::IsPaintingUrgently(void) const
	?HandlePointerEventL@ASwtControlBase@@UAEXABUTPointerEvent@@@Z @ 45 NONAME ; void ASwtControlBase::HandlePointerEventL(struct TPointerEvent const &)
	?SetForegroundL@ASwtControlBase@@UAEXPBVMSwtColor@@@Z @ 46 NONAME ; void ASwtControlBase::SetForegroundL(class MSwtColor const *)
	?SetWidgetSize@ASwtControlBase@@UAEXABVTSize@@@Z @ 47 NONAME ; void ASwtControlBase::SetWidgetSize(class TSize const &)
	?SetPopupMenuL@ASwtControlBase@@UAEXPBVMSwtMenu@@@Z @ 48 NONAME ; void ASwtControlBase::SetPopupMenuL(class MSwtMenu const *)
	?NewGcL@ASwtControlBase@@UAEPAVMSwtGc@@XZ @ 49 NONAME ; class MSwtGc * ASwtControlBase::NewGcL(void)
	?SetCapture@ASwtControlBase@@UAEXH@Z @ 50 NONAME ; void ASwtControlBase::SetCapture(int)
	?FocusBackgroundNow@ASwtControlBase@@IBEPAVCAknsBasicBackgroundControlContext@@XZ @ 51 NONAME ; class CAknsBasicBackgroundControlContext * ASwtControlBase::FocusBackgroundNow(void) const
	?ForceTraverseEvent@ASwtControlBase@@UAEHW4TSwtTraversal@@H@Z @ 52 NONAME ; int ASwtControlBase::ForceTraverseEvent(enum TSwtTraversal, int)
	?RedrawRegion@ASwtControlBase@@UAEXABVTRect@@@Z @ 53 NONAME ; void ASwtControlBase::RedrawRegion(class TRect const &)
	?GetVisibleRecursively@ASwtControlBase@@UBEHXZ @ 54 NONAME ; int ASwtControlBase::GetVisibleRecursively(void) const
	?JavaPeer@ASwtControlBase@@UBEPAV_jweak@@XZ @ 55 NONAME ; class _jweak * ASwtControlBase::JavaPeer(void) const
	?GetParent@ASwtControlBase@@UBEPAVMSwtComposite@@XZ @ 56 NONAME ; class MSwtComposite * ASwtControlBase::GetParent(void) const
	?HandleSizeChanged@ASwtControlBase@@IAEXXZ @ 57 NONAME ; void ASwtControlBase::HandleSizeChanged(void)
	?SetSwtFocus@ASwtControlBase@@UAEHH@Z @ 58 NONAME ; int ASwtControlBase::SetSwtFocus(int)
	?MoveBelow@ASwtControlBase@@UAEXPBVMSwtControl@@@Z @ 59 NONAME ; void ASwtControlBase::MoveBelow(class MSwtControl const *)
	?SetColorL@ASwtControlBase@@IAEXW4TLogicalColor@@PBVMSwtColor@@@Z @ 60 NONAME ; void ASwtControlBase::SetColorL(enum TLogicalColor, class MSwtColor const *)
	?ClientRect@ASwtControlBase@@UBE?AVTRect@@XZ @ 61 NONAME ; class TRect ASwtControlBase::ClientRect(void) const
	?GetBounds@ASwtControlBase@@UBE?AVTRect@@XZ @ 62 NONAME ; class TRect ASwtControlBase::GetBounds(void) const
	?RemoveFromControlStack@ASwtControlBase@@UAEXXZ @ 63 NONAME ; void ASwtControlBase::RemoveFromControlStack(void)
	?MSKLabelL@ASwtControlBase@@UBEPAVHBufC16@@XZ @ 64 NONAME ; class HBufC16 * ASwtControlBase::MSKLabelL(void) const
	?SetRedraw@ASwtControlBase@@UAEXH@Z @ 65 NONAME ; void ASwtControlBase::SetRedraw(int)
	?SetBounds@ASwtControlBase@@UAEXABVTRect@@@Z @ 66 NONAME ; void ASwtControlBase::SetBounds(class TRect const &)
	?BorderOuterRect@ASwtControlBase@@MBE?AVTRect@@ABV2@@Z @ 67 NONAME ; class TRect ASwtControlBase::BorderOuterRect(class TRect const &) const
	?SetVisible@ASwtControlBase@@UAEXH@Z @ 68 NONAME ; void ASwtControlBase::SetVisible(int)
	?IsOnControlStack@ASwtControlBase@@UBEHXZ @ 69 NONAME ; int ASwtControlBase::IsOnControlStack(void) const
	?NewL@CSwtServer@@SAPAV1@PAX@Z @ 70 NONAME ; class CSwtServer * CSwtServer::NewL(void *)
	?GetFont@ASwtControlBase@@UBEPBVMSwtFont@@XZ @ 71 NONAME ; class MSwtFont const * ASwtControlBase::GetFont(void) const
	?ToDisplay@ASwtControlBase@@UBE?AVTPoint@@ABV2@@Z @ 72 NONAME ; class TPoint ASwtControlBase::ToDisplay(class TPoint const &) const
	?ToControl@ASwtControlBase@@UBE?AVTPoint@@ABV2@@Z @ 73 NONAME ; class TPoint ASwtControlBase::ToControl(class TPoint const &) const
	?GetControlContext@ASwtControlBase@@UBEPAVMAknsControlContext@@XZ @ 74 NONAME ; class MAknsControlContext * ASwtControlBase::GetControlContext(void) const
	?GraphicsDevice@ASwtControlBase@@UAEAAVCBitmapDevice@@XZ @ 75 NONAME ; class CBitmapDevice & ASwtControlBase::GraphicsDevice(void)
	?GetShell@ASwtControlBase@@UBEAAVMSwtShell@@XZ @ 76 NONAME ; class MSwtShell & ASwtControlBase::GetShell(void) const
	?MoveAbove@ASwtControlBase@@UAEXPBVMSwtControl@@@Z @ 77 NONAME ; void ASwtControlBase::MoveAbove(class MSwtControl const *)
	?SetFontL@ASwtControlBase@@UAEXPBVMSwtFont@@@Z @ 78 NONAME ; void ASwtControlBase::SetFontL(class MSwtFont const *)
	?PaintUrgently@ASwtControlBase@@UBEXABVTRect@@H@Z @ 79 NONAME ; void ASwtControlBase::PaintUrgently(class TRect const &, int) const
	?SwtMopSupplyObject@ASwtControlBase@@QAE?AVPtr@TTypeUid@@V3@@Z @ 80 NONAME ; class TTypeUid::Ptr ASwtControlBase::SwtMopSupplyObject(class TTypeUid)
	?UpdateDoNotDrawFlag@ASwtControlBase@@UAEXXZ @ 81 NONAME ; void ASwtControlBase::UpdateDoNotDrawFlag(void)
	?GetTopShell@ASwtControlBase@@UBEAAVMSwtShell@@XZ @ 82 NONAME ; class MSwtShell & ASwtControlBase::GetTopShell(void) const
	?DoControlSpecificFeedback@ASwtControlBase@@UBEXABH0ABUTPointerEvent@@@Z @ 83 NONAME ; void ASwtControlBase::DoControlSpecificFeedback(int const &, int const &, struct TPointerEvent const &) const
	?Draw@ASwtControlBase@@UBEXAAVCWindowGc@@ABVCCoeControl@@ABVTRect@@@Z @ 84 NONAME ; void ASwtControlBase::Draw(class CWindowGc &, class CCoeControl const &, class TRect const &) const
	?GetEnabled@ASwtControlBase@@UBEHXZ @ 85 NONAME ; int ASwtControlBase::GetEnabled(void) const
	?RegisterWithParentL@ASwtControlBase@@IAEXXZ @ 86 NONAME ; void ASwtControlBase::RegisterWithParentL(void)
	?DrawBorder@ASwtControlBase@@MBEXABVTRect@@@Z @ 87 NONAME ; void ASwtControlBase::DrawBorder(class TRect const &) const
	?ComputeTabListL@ASwtControlBase@@UAEXAAV?$RPointerArray@VMSwtControl@@@@@Z @ 88 NONAME ; void ASwtControlBase::ComputeTabListL(class RPointerArray<class MSwtControl> &)

