EXPORTS
	_Z10jni_lookupPKc @ 1 NONAME
	_ZN3SWT13CreateClientLEv @ 2 NONAME
	_ZN10CSwtServer4NewLEPv @ 3 NONAME
	_ZN10CSwtServerD0Ev @ 4 NONAME
	_ZN10CSwtServerD1Ev @ 5 NONAME
	_ZN10CSwtServerD2Ev @ 6 NONAME
	_ZN15ASwtControlBase10SetCaptureEi @ 7 NONAME
	_ZN15ASwtControlBase10SetEnabledEi @ 8 NONAME
	_ZN15ASwtControlBase10SetVisibleEi @ 9 NONAME
	_ZN15ASwtControlBase11SetLocationERK6TPoint @ 10 NONAME
	_ZN15ASwtControlBase11SetSwtFocusEi @ 11 NONAME
	_ZN15ASwtControlBase12HandleUpdateEv @ 12 NONAME
	_ZN15ASwtControlBase12RedrawRegionERK5TRect @ 13 NONAME
	_ZN15ASwtControlBase13SetPopupMenuLEPK8MSwtMenu @ 14 NONAME
	_ZN15ASwtControlBase13SetWidgetSizeERK5TSize @ 15 NONAME
	_ZN15ASwtControlBase14GraphicsDeviceEv @ 16 NONAME
	_ZN15ASwtControlBase14IsFocusControlEv @ 17 NONAME
	_ZN15ASwtControlBase14SetBackgroundLEPK9MSwtColor @ 18 NONAME
	_ZN15ASwtControlBase14SetForegroundLEPK9MSwtColor @ 19 NONAME
	_ZN15ASwtControlBase15ComputeTabListLER13RPointerArrayI11MSwtControlE @ 20 NONAME
	_ZN15ASwtControlBase15PostMouseEventLERK13TPointerEvent @ 21 NONAME
	_ZN15ASwtControlBase17HandleSizeChangedEv @ 22 NONAME
	_ZN15ASwtControlBase18AddToControlStackLEi @ 23 NONAME
	_ZN15ASwtControlBase18ForceTraverseEventE13TSwtTraversali @ 24 NONAME
	_ZN15ASwtControlBase18HandleFocusChangedE8TDrawNow @ 25 NONAME
	_ZN15ASwtControlBase18SwtMopSupplyObjectE8TTypeUid @ 26 NONAME
	_ZN15ASwtControlBase19HandlePointerEventLERK13TPointerEvent @ 27 NONAME
	_ZN15ASwtControlBase19RegisterWithParentLEv @ 28 NONAME
	_ZN15ASwtControlBase19UpdateDoNotDrawFlagEv @ 29 NONAME
	_ZN15ASwtControlBase21HandlePositionChangedEv @ 30 NONAME
	_ZN15ASwtControlBase22RemoveFromControlStackEv @ 31 NONAME
	_ZN15ASwtControlBase6NewGcLEv @ 32 NONAME
	_ZN15ASwtControlBase6RedrawEv @ 33 NONAME
	_ZN15ASwtControlBase7DisposeEv @ 34 NONAME
	_ZN15ASwtControlBase8DoDeleteEv @ 35 NONAME
	_ZN15ASwtControlBase8SetFontLEPK8MSwtFont @ 36 NONAME
	_ZN15ASwtControlBase9MoveAboveEPK11MSwtControl @ 37 NONAME
	_ZN15ASwtControlBase9MoveBelowEPK11MSwtControl @ 38 NONAME
	_ZN15ASwtControlBase9SetBoundsERK5TRect @ 39 NONAME
	_ZN15ASwtControlBase9SetColorLE13TLogicalColorPK9MSwtColor @ 40 NONAME
	_ZN15ASwtControlBase9SetRedrawEi @ 41 NONAME
	_ZN15ASwtControlBaseC2ER11MSwtDisplayP6_jweakP13MSwtCompositei @ 42 NONAME
	_ZN15ASwtControlBaseD0Ev @ 43 NONAME
	_ZN15ASwtControlBaseD1Ev @ 44 NONAME
	_ZN15ASwtControlBaseD2Ev @ 45 NONAME
	_ZNK15ASwtControlBase10ClientRectEv @ 46 NONAME
	_ZNK15ASwtControlBase10DrawBorderERK5TRect @ 47 NONAME
	_ZNK15ASwtControlBase10GetEnabledEv @ 48 NONAME
	_ZNK15ASwtControlBase10GetVisibleEv @ 49 NONAME
	_ZNK15ASwtControlBase11DefaultFontEv @ 50 NONAME
	_ZNK15ASwtControlBase11GetLocationEv @ 51 NONAME
	_ZNK15ASwtControlBase11GetTopShellEv @ 52 NONAME
	_ZNK15ASwtControlBase11IsDescentOfERK11MSwtControl @ 53 NONAME
	_ZNK15ASwtControlBase11IsFocusableEi @ 54 NONAME
	_ZNK15ASwtControlBase12GetPopupMenuEv @ 55 NONAME
	_ZNK15ASwtControlBase13GetBackgroundEv @ 56 NONAME
	_ZNK15ASwtControlBase13GetForegroundEv @ 57 NONAME
	_ZNK15ASwtControlBase13GetWidgetSizeEv @ 58 NONAME
	_ZNK15ASwtControlBase13PaintUrgentlyERK5TRecti @ 59 NONAME
	_ZNK15ASwtControlBase14GetBorderWidthEv @ 60 NONAME
	_ZNK15ASwtControlBase14GetControlMenuEv @ 61 NONAME
	_ZNK15ASwtControlBase15BorderInnerRectEv @ 62 NONAME
	_ZNK15ASwtControlBase15BorderOuterRectERK5TRect @ 63 NONAME
	_ZNK15ASwtControlBase15CbaButtonIsUsedEi @ 64 NONAME
	_ZNK15ASwtControlBase16HasDoNotDrawFlagEv @ 65 NONAME
	_ZNK15ASwtControlBase16IsOnControlStackEv @ 66 NONAME
	_ZNK15ASwtControlBase16MSKSelCmdEnabledEv @ 67 NONAME
	_ZNK15ASwtControlBase17GetControlContextEv @ 68 NONAME
	_ZNK15ASwtControlBase18IsPaintingUrgentlyEv @ 69 NONAME
	_ZNK15ASwtControlBase21FocusBackgroundPolicyEv @ 70 NONAME
	_ZNK15ASwtControlBase21GetVisibleRecursivelyEv @ 71 NONAME
	_ZNK15ASwtControlBase22GetTopCaptionedControlEv @ 72 NONAME
	_ZNK15ASwtControlBase22IsDefaultBackgroundUseEv @ 73 NONAME
	_ZNK15ASwtControlBase25DoControlSpecificFeedbackERKiS1_RK13TPointerEvent @ 74 NONAME
	_ZNK15ASwtControlBase27IsLongTapAnimationCandidateERK13TPointerEvent @ 75 NONAME
	_ZNK15ASwtControlBase4DrawER9CWindowGcRK11CCoeControlRK5TRect @ 76 NONAME
	_ZNK15ASwtControlBase5FlagsEv @ 77 NONAME
	_ZNK15ASwtControlBase5PaintERK5TRectiP6MSwtGcPiiP7HBufC16 @ 78 NONAME
	_ZNK15ASwtControlBase5StyleEv @ 79 NONAME
	_ZNK15ASwtControlBase6UpdateEv @ 80 NONAME
	_ZNK15ASwtControlBase7DoPaintERK5TRect @ 81 NONAME
	_ZNK15ASwtControlBase7GetFontEv @ 82 NONAME
	_ZNK15ASwtControlBase7UiUtilsEv @ 83 NONAME
	_ZNK15ASwtControlBase8GetShellEv @ 84 NONAME
	_ZNK15ASwtControlBase8JavaPeerEv @ 85 NONAME
	_ZNK15ASwtControlBase9GetBoundsEv @ 86 NONAME
	_ZNK15ASwtControlBase9GetParentEv @ 87 NONAME
	_ZNK15ASwtControlBase9IsKeyUsedEj @ 88 NONAME
	_ZNK15ASwtControlBase9MSKLabelLEv @ 89 NONAME
	_ZNK15ASwtControlBase9ToControlERK6TPoint @ 90 NONAME
	_ZNK15ASwtControlBase9ToDisplayERK6TPoint @ 91 NONAME
	_ZTI11CSwtBrowser @ 92 NONAME
	_ZTI15ASwtControlBase @ 93 NONAME
	_ZTI22CSwtBrowserPreferences @ 94 NONAME
	_ZTV11CSwtBrowser @ 95 NONAME
	_ZTV15ASwtControlBase @ 96 NONAME
	_ZTV22CSwtBrowserPreferences @ 97 NONAME
	_ZThn4_NK15ASwtControlBase4DrawER9CWindowGcRK11CCoeControlRK5TRect @ 98 NONAME
	_ZNK15ASwtControlBase11VisibleRectEi @ 99 NONAME
	_ZN15ASwtControlBase20EnableFocusHighlightEi @ 100 NONAME

