EXPORTS
	??0CWriteableJavaRegistry@Registry@Manager@Java@@IAE@XZ @ 1 NONAME ; Java::Manager::Registry::CWriteableJavaRegistry::CWriteableJavaRegistry(void)
	??0CWriteableJavaRegistryApplicationEntry@Registry@Manager@Java@@IAE@ABVTUid@@@Z @ 2 NONAME ; Java::Manager::Registry::CWriteableJavaRegistryApplicationEntry::CWriteableJavaRegistryApplicationEntry(class TUid const &)
	??0CWriteableJavaRegistryEntry@Registry@Manager@Java@@IAE@ABVTUid@@@Z @ 3 NONAME ; Java::Manager::Registry::CWriteableJavaRegistryEntry::CWriteableJavaRegistryEntry(class TUid const &)
	??0CWriteableJavaRegistryPackageEntry@Registry@Manager@Java@@IAE@ABVTUid@@@Z @ 4 NONAME ; Java::Manager::Registry::CWriteableJavaRegistryPackageEntry::CWriteableJavaRegistryPackageEntry(class TUid const &)
	??1CJavaProperty@Registry@Manager@Java@@UAE@XZ @ 5 NONAME ; Java::Manager::Registry::CJavaProperty::~CJavaProperty(void)
	??1CJavaRegistryBackupSupport@Registry@Manager@Java@@UAE@XZ @ 6 NONAME ; Java::Manager::Registry::CJavaRegistryBackupSupport::~CJavaRegistryBackupSupport(void)
	??1CJavaRegistryEntry@Java@@UAE@XZ @ 7 NONAME ; Java::CJavaRegistryEntry::~CJavaRegistryEntry(void)
	??1CWriteableJavaRegistry@Registry@Manager@Java@@UAE@XZ @ 8 NONAME ; Java::Manager::Registry::CWriteableJavaRegistry::~CWriteableJavaRegistry(void)
	??1CWriteableJavaRegistryEntry@Registry@Manager@Java@@UAE@XZ @ 9 NONAME ; Java::Manager::Registry::CWriteableJavaRegistryEntry::~CWriteableJavaRegistryEntry(void)
	??1CWriteableJavaRegistryPackageEntry@Registry@Manager@Java@@UAE@XZ @ 10 NONAME ; Java::Manager::Registry::CWriteableJavaRegistryPackageEntry::~CWriteableJavaRegistryPackageEntry(void)
	??8CJavaProperty@Registry@Manager@Java@@QAEHABV0123@@Z @ 11 NONAME ; int Java::Manager::Registry::CJavaProperty::operator==(class Java::Manager::Registry::CJavaProperty const &)
	?AddCertificateChainL@CWriteableJavaRegistryEntry@Registry@Manager@Java@@QAEXABVTDesC8@@@Z @ 12 NONAME ; void Java::Manager::Registry::CWriteableJavaRegistryEntry::AddCertificateChainL(class TDesC8 const &)
	?AddEmbeddedEntryL@CWriteableJavaRegistryPackageEntry@Registry@Manager@Java@@QAEXABVTUid@@@Z @ 13 NONAME ; void Java::Manager::Registry::CWriteableJavaRegistryPackageEntry::AddEmbeddedEntryL(class TUid const &)
	?BooleanProperty@CWriteableJavaRegistryEntry@Registry@Manager@Java@@IBEHJH@Z @ 14 NONAME ; int Java::Manager::Registry::CWriteableJavaRegistryEntry::BooleanProperty(long, int) const
	?CertificateChain@CJavaRegistryEntry@Java@@QBEABVTDesC8@@H@Z @ 15 NONAME ; class TDesC8 const & Java::CJavaRegistryEntry::CertificateChain(int) const
	?CertificateChain@CWriteableJavaRegistryEntry@Registry@Manager@Java@@QBEABVTDesC8@@H@Z @ 16 NONAME ; class TDesC8 const & Java::Manager::Registry::CWriteableJavaRegistryEntry::CertificateChain(int) const
	?ChangeBURState@CJavaRegistryBackupSupport@Registry@Manager@Java@@QBEHABW4TBackupState@234@@Z @ 17 NONAME ; int Java::Manager::Registry::CJavaRegistryBackupSupport::ChangeBURState(enum Java::Manager::Registry::TBackupState const &) const
	?ConstructL@CWriteableJavaRegistry@Registry@Manager@Java@@IAEXHH@Z @ 18 NONAME ; void Java::Manager::Registry::CWriteableJavaRegistry::ConstructL(int, int)
	?ConstructL@CWriteableJavaRegistry@Registry@Manager@Java@@IAEX_J@Z @ 19 NONAME ; void Java::Manager::Registry::CWriteableJavaRegistry::ConstructL(long long)
	?ConstructL@CWriteableJavaRegistryEntry@Registry@Manager@Java@@IAEXW4TJavaRegistryEntryType@4@@Z @ 20 NONAME ; void Java::Manager::Registry::CWriteableJavaRegistryEntry::ConstructL(enum Java::TJavaRegistryEntryType)
	?DecideEntryTypeAndCreateL@CWriteableJavaRegistry@Registry@Manager@Java@@MBEPAVCWriteableJavaRegistryEntry@234@ABVTUid@@PAVCJavaPropertyArray@234@@Z @ 21 NONAME ; class Java::Manager::Registry::CWriteableJavaRegistryEntry * Java::Manager::Registry::CWriteableJavaRegistry::DecideEntryTypeAndCreateL(class TUid const &, class Java::Manager::Registry::CJavaPropertyArray *) const
	?DeleteProperty@CWriteableJavaRegistryEntry@Registry@Manager@Java@@IAEXH@Z @ 22 NONAME ; void Java::Manager::Registry::CWriteableJavaRegistryEntry::DeleteProperty(int)
	?DownloadPlugin@CWriteableJavaRegistryPackageEntry@Registry@Manager@Java@@QBEABVTDesC8@@XZ @ 23 NONAME ; class TDesC8 const & Java::Manager::Registry::CWriteableJavaRegistryPackageEntry::DownloadPlugin(void) const
	?Drive@CJavaRegistryEntry@Java@@QBE?AW4TDriveNumber@@XZ @ 24 NONAME ; enum TDriveNumber Java::CJavaRegistryEntry::Drive(void) const
	?Drive@CWriteableJavaRegistryEntry@Registry@Manager@Java@@QBE?AW4TDriveNumber@@XZ @ 25 NONAME ; enum TDriveNumber Java::Manager::Registry::CWriteableJavaRegistryEntry::Drive(void) const
	?EmbeddedEntryByNumberL@CJavaRegistryPackageEntry@Java@@QBEPAVCJavaRegistryEntry@2@H@Z @ 26 NONAME ; class Java::CJavaRegistryEntry * Java::CJavaRegistryPackageEntry::EmbeddedEntryByNumberL(int) const
	?EmbeddedEntryByNumberL@CWriteableJavaRegistryPackageEntry@Registry@Manager@Java@@QBEPAVCWriteableJavaRegistryEntry@234@H@Z @ 27 NONAME ; class Java::Manager::Registry::CWriteableJavaRegistryEntry * Java::Manager::Registry::CWriteableJavaRegistryPackageEntry::EmbeddedEntryByNumberL(int) const
	?EmbeddedEntryByUidL@CJavaRegistryPackageEntry@Java@@QBEPAVCJavaRegistryEntry@2@ABVTUid@@@Z @ 28 NONAME ; class Java::CJavaRegistryEntry * Java::CJavaRegistryPackageEntry::EmbeddedEntryByUidL(class TUid const &) const
	?EmbeddedEntryByUidL@CWriteableJavaRegistryPackageEntry@Registry@Manager@Java@@QBEPAVCWriteableJavaRegistryEntry@234@ABVTUid@@@Z @ 29 NONAME ; class Java::Manager::Registry::CWriteableJavaRegistryEntry * Java::Manager::Registry::CWriteableJavaRegistryPackageEntry::EmbeddedEntryByUidL(class TUid const &) const
	?EntriesExistForDriveL@CJavaRegistryBackupSupport@Registry@Manager@Java@@QBEHABW4TDriveNumber@@@Z @ 30 NONAME ; int Java::Manager::Registry::CJavaRegistryBackupSupport::EntriesExistForDriveL(enum TDriveNumber const &) const
	?GenerateUidsL@CWriteableJavaRegistry@Registry@Manager@Java@@QBEXAAV?$RArray@VTUid@@@@H@Z @ 31 NONAME ; void Java::Manager::Registry::CWriteableJavaRegistry::GenerateUidsL(class RArray<class TUid> &, int) const
	?GetCertificateChainsL@JavaRegConverter@Registry@Manager@Java@@SAXABVTDesC16@@AAV?$RPointerArray@VHBufC8@@@@@Z @ 32 NONAME ; void Java::Manager::Registry::JavaRegConverter::GetCertificateChainsL(class TDesC16 const &, class RPointerArray<class HBufC8> &)
	?GetEmbeddedEntries@CJavaRegistryPackageEntry@Java@@QBEXAAV?$RArray@VTUid@@@@@Z @ 33 NONAME ; void Java::CJavaRegistryPackageEntry::GetEmbeddedEntries(class RArray<class TUid> &) const
	?GetEmbeddedEntries@CWriteableJavaRegistryPackageEntry@Registry@Manager@Java@@QBEXAAV?$RArray@VTUid@@@@@Z @ 34 NONAME ; void Java::Manager::Registry::CWriteableJavaRegistryPackageEntry::GetEmbeddedEntries(class RArray<class TUid> &) const
	?GetPropertyIndex@CWriteableJavaRegistryEntry@Registry@Manager@Java@@IBEHJ@Z @ 35 NONAME ; int Java::Manager::Registry::CWriteableJavaRegistryEntry::GetPropertyIndex(long) const
	?GetRegistryEntryUidsL@CJavaRegistry@Java@@QBEXAAV?$RArray@VTUid@@@@@Z @ 36 NONAME ; void Java::CJavaRegistry::GetRegistryEntryUidsL(class RArray<class TUid> &) const
	?GetRegistryEntryUidsL@CJavaRegistry@Java@@QBEXW4TJavaRegistryEntryType@2@AAV?$RArray@VTUid@@@@@Z @ 37 NONAME ; void Java::CJavaRegistry::GetRegistryEntryUidsL(enum Java::TJavaRegistryEntryType, class RArray<class TUid> &) const
	?GetRegistryEntryUidsL@CWriteableJavaRegistry@Registry@Manager@Java@@QBEXAAV?$RArray@VTUid@@@@@Z @ 38 NONAME ; void Java::Manager::Registry::CWriteableJavaRegistry::GetRegistryEntryUidsL(class RArray<class TUid> &) const
	?GetRegistryEntryUidsL@CWriteableJavaRegistry@Registry@Manager@Java@@QBEXABV?$RPointerArray@VCJavaProperty@Registry@Manager@Java@@@@AAV?$RArray@VTUid@@@@@Z @ 39 NONAME ABSENT ; void Java::Manager::Registry::CWriteableJavaRegistry::GetRegistryEntryUidsL(class RPointerArray<class Java::Manager::Registry::CJavaProperty> const &, class RArray<class TUid> &) const
	?GetRegistryEntryUidsL@CWriteableJavaRegistry@Registry@Manager@Java@@QBEXW4TJavaRegistryEntryType@4@AAV?$RArray@VTUid@@@@@Z @ 40 NONAME ABSENT ; void Java::Manager::Registry::CWriteableJavaRegistry::GetRegistryEntryUidsL(enum Java::TJavaRegistryEntryType, class RArray<class TUid> &) const
	?GetTAppVersion@JavaRegConverter@Registry@Manager@Java@@SA?AVTAppVersion@@ABVTDesC16@@V5@@Z @ 41 NONAME ; class TAppVersion Java::Manager::Registry::JavaRegConverter::GetTAppVersion(class TDesC16 const &, class TAppVersion)
	?GetTAppVersionL@JavaRegConverter@Registry@Manager@Java@@SA?AVTAppVersion@@ABVTDesC16@@@Z @ 42 NONAME ; class TAppVersion Java::Manager::Registry::JavaRegConverter::GetTAppVersionL(class TDesC16 const &)
	?GetTBool@JavaRegConverter@Registry@Manager@Java@@SAHABVTDesC16@@H@Z @ 43 NONAME ; int Java::Manager::Registry::JavaRegConverter::GetTBool(class TDesC16 const &, int)
	?GetTBoolL@JavaRegConverter@Registry@Manager@Java@@SAHABVTDesC16@@@Z @ 44 NONAME ; int Java::Manager::Registry::JavaRegConverter::GetTBoolL(class TDesC16 const &)
	?GetTInt@JavaRegConverter@Registry@Manager@Java@@SAJABVTDesC16@@J@Z @ 45 NONAME ; long Java::Manager::Registry::JavaRegConverter::GetTInt(class TDesC16 const &, long)
	?GetTIntL@JavaRegConverter@Registry@Manager@Java@@SAJABVTDesC16@@@Z @ 46 NONAME ; long Java::Manager::Registry::JavaRegConverter::GetTIntL(class TDesC16 const &)
	?GetUnicodeDescriptorsL@JavaRegConverter@Registry@Manager@Java@@SAXABVTDesC16@@AAV?$RPointerArray@VHBufC16@@@@@Z @ 47 NONAME ; void Java::Manager::Registry::JavaRegConverter::GetUnicodeDescriptorsL(class TDesC16 const &, class RPointerArray<class HBufC16> &)
	?GroupName@CJavaRegistryApplicationEntry@Java@@QBEABVTDesC16@@XZ @ 48 NONAME ; class TDesC16 const & Java::CJavaRegistryApplicationEntry::GroupName(void) const
	?GroupName@CWriteableJavaRegistryApplicationEntry@Registry@Manager@Java@@QBEABVTDesC16@@XZ @ 49 NONAME ; class TDesC16 const & Java::Manager::Registry::CWriteableJavaRegistryApplicationEntry::GroupName(void) const
	?Id@CJavaProperty@Registry@Manager@Java@@QBEJXZ @ 50 NONAME ; long Java::Manager::Registry::CJavaProperty::Id(void) const
	?InstallPackageUid@CWriteableJavaRegistryApplicationEntry@Registry@Manager@Java@@QBE?AVTUid@@XZ @ 51 NONAME ; class TUid Java::Manager::Registry::CWriteableJavaRegistryApplicationEntry::InstallPackageUid(void) const
	?InstallPlugin@CWriteableJavaRegistryPackageEntry@Registry@Manager@Java@@QBEABVTDesC8@@XZ @ 52 NONAME ; class TDesC8 const & Java::Manager::Registry::CWriteableJavaRegistryPackageEntry::InstallPlugin(void) const
	?IntegerProperty@CWriteableJavaRegistryEntry@Registry@Manager@Java@@IBEJJJ@Z @ 53 NONAME ; long Java::Manager::Registry::CWriteableJavaRegistryEntry::IntegerProperty(long, long) const
	?IsResident@CJavaRegistryApplicationEntry@Java@@QBEHXZ @ 54 NONAME ; int Java::CJavaRegistryApplicationEntry::IsResident(void) const
	?IsResident@CWriteableJavaRegistryApplicationEntry@Registry@Manager@Java@@QBEHXZ @ 55 NONAME ; int Java::Manager::Registry::CWriteableJavaRegistryApplicationEntry::IsResident(void) const
	?IsStartable@CJavaRegistryApplicationEntry@Java@@QBEHXZ @ 56 NONAME ; int Java::CJavaRegistryApplicationEntry::IsStartable(void) const
	?IsStartable@CWriteableJavaRegistryApplicationEntry@Registry@Manager@Java@@QBEHXZ @ 57 NONAME ; int Java::Manager::Registry::CWriteableJavaRegistryApplicationEntry::IsStartable(void) const
	?IsUninstallable@CJavaRegistryPackageEntry@Java@@QBEHXZ @ 58 NONAME ; int Java::CJavaRegistryPackageEntry::IsUninstallable(void) const
	?IsUninstallable@CWriteableJavaRegistryPackageEntry@Registry@Manager@Java@@QBEHXZ @ 59 NONAME ; int Java::Manager::Registry::CWriteableJavaRegistryPackageEntry::IsUninstallable(void) const
	?IsVisible@CJavaRegistryApplicationEntry@Java@@QBEHXZ @ 60 NONAME ; int Java::CJavaRegistryApplicationEntry::IsVisible(void) const
	?IsVisible@CWriteableJavaRegistryApplicationEntry@Registry@Manager@Java@@QBEHXZ @ 61 NONAME ; int Java::Manager::Registry::CWriteableJavaRegistryApplicationEntry::IsVisible(void) const
	?Name@CJavaRegistryEntry@Java@@QBEABVTDesC16@@XZ @ 62 NONAME ; class TDesC16 const & Java::CJavaRegistryEntry::Name(void) const
	?Name@CWriteableJavaRegistryEntry@Registry@Manager@Java@@QBEABVTDesC16@@XZ @ 63 NONAME ; class TDesC16 const & Java::Manager::Registry::CWriteableJavaRegistryEntry::Name(void) const
	?NewL@CJavaProperty@Registry@Manager@Java@@SAPAV1234@JABVTDesC16@@@Z @ 64 NONAME ; class Java::Manager::Registry::CJavaProperty * Java::Manager::Registry::CJavaProperty::NewL(long, class TDesC16 const &)
	?NewL@CJavaRegistry@Java@@SAPAV12@XZ @ 65 NONAME ; class Java::CJavaRegistry * Java::CJavaRegistry::NewL(void)
	?NewL@CJavaRegistryBackupSupport@Registry@Manager@Java@@SAPAV1234@XZ @ 66 NONAME ; class Java::Manager::Registry::CJavaRegistryBackupSupport * Java::Manager::Registry::CJavaRegistryBackupSupport::NewL(void)
	?NewL@CWriteableJavaRegistry@Registry@Manager@Java@@SAPAV1234@H@Z @ 67 NONAME ; class Java::Manager::Registry::CWriteableJavaRegistry * Java::Manager::Registry::CWriteableJavaRegistry::NewL(int)
	?NewL@CWriteableJavaRegistry@Registry@Manager@Java@@SAPAV1234@_J@Z @ 68 NONAME ; class Java::Manager::Registry::CWriteableJavaRegistry * Java::Manager::Registry::CWriteableJavaRegistry::NewL(long long)
	?NewL@CWriteableJavaRegistryApplicationEntry@Registry@Manager@Java@@SAPAV1234@ABVTUid@@@Z @ 69 NONAME ; class Java::Manager::Registry::CWriteableJavaRegistryApplicationEntry * Java::Manager::Registry::CWriteableJavaRegistryApplicationEntry::NewL(class TUid const &)
	?NewL@CWriteableJavaRegistryPackageEntry@Registry@Manager@Java@@SAPAV1234@ABVTUid@@@Z @ 70 NONAME ; class Java::Manager::Registry::CWriteableJavaRegistryPackageEntry * Java::Manager::Registry::CWriteableJavaRegistryPackageEntry::NewL(class TUid const &)
	?NewLC@CJavaProperty@Registry@Manager@Java@@SAPAV1234@JABVTDesC16@@@Z @ 71 NONAME ; class Java::Manager::Registry::CJavaProperty * Java::Manager::Registry::CJavaProperty::NewLC(long, class TDesC16 const &)
	?NewLC@CJavaRegistry@Java@@SAPAV12@XZ @ 72 NONAME ; class Java::CJavaRegistry * Java::CJavaRegistry::NewLC(void)
	?NewLC@CJavaRegistryBackupSupport@Registry@Manager@Java@@SAPAV1234@XZ @ 73 NONAME ; class Java::Manager::Registry::CJavaRegistryBackupSupport * Java::Manager::Registry::CJavaRegistryBackupSupport::NewLC(void)
	?NewLC@CWriteableJavaRegistry@Registry@Manager@Java@@SAPAV1234@H@Z @ 74 NONAME ; class Java::Manager::Registry::CWriteableJavaRegistry * Java::Manager::Registry::CWriteableJavaRegistry::NewLC(int)
	?NewLC@CWriteableJavaRegistry@Registry@Manager@Java@@SAPAV1234@_J@Z @ 75 NONAME ; class Java::Manager::Registry::CWriteableJavaRegistry * Java::Manager::Registry::CWriteableJavaRegistry::NewLC(long long)
	?NewLC@CWriteableJavaRegistryApplicationEntry@Registry@Manager@Java@@SAPAV1234@ABVTUid@@@Z @ 76 NONAME ; class Java::Manager::Registry::CWriteableJavaRegistryApplicationEntry * Java::Manager::Registry::CWriteableJavaRegistryApplicationEntry::NewLC(class TUid const &)
	?NewLC@CWriteableJavaRegistryPackageEntry@Registry@Manager@Java@@SAPAV1234@ABVTUid@@@Z @ 77 NONAME ; class Java::Manager::Registry::CWriteableJavaRegistryPackageEntry * Java::Manager::Registry::CWriteableJavaRegistryPackageEntry::NewLC(class TUid const &)
	?NumberOfCertificateChains@CJavaRegistryEntry@Java@@QBEHXZ @ 78 NONAME ; int Java::CJavaRegistryEntry::NumberOfCertificateChains(void) const
	?NumberOfCertificateChains@CWriteableJavaRegistryEntry@Registry@Manager@Java@@QBEHXZ @ 79 NONAME ; int Java::Manager::Registry::CWriteableJavaRegistryEntry::NumberOfCertificateChains(void) const
	?NumberOfEmbeddedEntries@CJavaRegistryPackageEntry@Java@@QBEHXZ @ 80 NONAME ; int Java::CJavaRegistryPackageEntry::NumberOfEmbeddedEntries(void) const
	?NumberOfEmbeddedEntries@CWriteableJavaRegistryPackageEntry@Registry@Manager@Java@@QBEHXZ @ 81 NONAME ; int Java::Manager::Registry::CWriteableJavaRegistryPackageEntry::NumberOfEmbeddedEntries(void) const
	?PackageEntryL@CJavaRegistryApplicationEntry@Java@@QBEPAVCJavaRegistryPackageEntry@2@XZ @ 82 NONAME ; class Java::CJavaRegistryPackageEntry * Java::CJavaRegistryApplicationEntry::PackageEntryL(void) const
	?PackageEntryL@CWriteableJavaRegistryApplicationEntry@Registry@Manager@Java@@QBEPAVCWriteableJavaRegistryPackageEntry@234@XZ @ 83 NONAME ; class Java::Manager::Registry::CWriteableJavaRegistryPackageEntry * Java::Manager::Registry::CWriteableJavaRegistryApplicationEntry::PackageEntryL(void) const
	?Property@CWriteableJavaRegistryEntry@Registry@Manager@Java@@QBEPBVCJavaProperty@234@J@Z @ 84 NONAME ; class Java::Manager::Registry::CJavaProperty const * Java::Manager::Registry::CWriteableJavaRegistryEntry::Property(long) const
	?RegistryEntryExistsL@CJavaRegistry@Java@@QBEHABVTUid@@@Z @ 85 NONAME ; int Java::CJavaRegistry::RegistryEntryExistsL(class TUid const &) const
	?RegistryEntryExistsL@CWriteableJavaRegistry@Registry@Manager@Java@@QBEHABVTUid@@@Z @ 86 NONAME ; int Java::Manager::Registry::CWriteableJavaRegistry::RegistryEntryExistsL(class TUid const &) const
	?RegistryEntryL@CJavaRegistry@Java@@QBEPAVCJavaRegistryEntry@2@ABVTUid@@@Z @ 87 NONAME ; class Java::CJavaRegistryEntry * Java::CJavaRegistry::RegistryEntryL(class TUid const &) const
	?RegistryEntryL@CWriteableJavaRegistry@Registry@Manager@Java@@QBEPAVCWriteableJavaRegistryEntry@234@ABVTUid@@@Z @ 88 NONAME ABSENT ; class Java::Manager::Registry::CWriteableJavaRegistryEntry * Java::Manager::Registry::CWriteableJavaRegistry::RegistryEntryL(class TUid const &) const
	?RemoveEmbeddedEntryL@CWriteableJavaRegistryPackageEntry@Registry@Manager@Java@@QAEXABVTUid@@@Z @ 89 NONAME ; void Java::Manager::Registry::CWriteableJavaRegistryPackageEntry::RemoveEmbeddedEntryL(class TUid const &)
	?RemoveRegistryEntryL@CWriteableJavaRegistry@Registry@Manager@Java@@QBEXABVTUid@@H@Z @ 90 NONAME ABSENT ; void Java::Manager::Registry::CWriteableJavaRegistry::RemoveRegistryEntryL(class TUid const &, int) const
	?SetBooleanPropertyL@CWriteableJavaRegistryEntry@Registry@Manager@Java@@IAEXJH@Z @ 91 NONAME ; void Java::Manager::Registry::CWriteableJavaRegistryEntry::SetBooleanPropertyL(long, int)
	?SetDescriptorPropertyL@CWriteableJavaRegistryEntry@Registry@Manager@Java@@IAEXJABVTDesC16@@@Z @ 92 NONAME ; void Java::Manager::Registry::CWriteableJavaRegistryEntry::SetDescriptorPropertyL(long, class TDesC16 const &)
	?SetDownloadPluginL@CWriteableJavaRegistryPackageEntry@Registry@Manager@Java@@QAEXABVTDesC8@@@Z @ 93 NONAME ; void Java::Manager::Registry::CWriteableJavaRegistryPackageEntry::SetDownloadPluginL(class TDesC8 const &)
	?SetDriveL@CWriteableJavaRegistryEntry@Registry@Manager@Java@@QAEXABW4TDriveNumber@@@Z @ 94 NONAME ; void Java::Manager::Registry::CWriteableJavaRegistryEntry::SetDriveL(enum TDriveNumber const &)
	?SetGroupNameL@CWriteableJavaRegistryApplicationEntry@Registry@Manager@Java@@QAEXABVTDesC16@@@Z @ 95 NONAME ; void Java::Manager::Registry::CWriteableJavaRegistryApplicationEntry::SetGroupNameL(class TDesC16 const &)
	?SetInstallPackageUidL@CWriteableJavaRegistryApplicationEntry@Registry@Manager@Java@@QAEXABVTUid@@@Z @ 96 NONAME ; void Java::Manager::Registry::CWriteableJavaRegistryApplicationEntry::SetInstallPackageUidL(class TUid const &)
	?SetInstallPluginL@CWriteableJavaRegistryPackageEntry@Registry@Manager@Java@@QAEXABVTDesC8@@@Z @ 97 NONAME ; void Java::Manager::Registry::CWriteableJavaRegistryPackageEntry::SetInstallPluginL(class TDesC8 const &)
	?SetIntegerPropertyL@CWriteableJavaRegistryEntry@Registry@Manager@Java@@IAEXJJ@Z @ 98 NONAME ; void Java::Manager::Registry::CWriteableJavaRegistryEntry::SetIntegerPropertyL(long, long)
	?SetNameL@CWriteableJavaRegistryEntry@Registry@Manager@Java@@QAEXABVTDesC16@@@Z @ 99 NONAME ; void Java::Manager::Registry::CWriteableJavaRegistryEntry::SetNameL(class TDesC16 const &)
	?SetPropertyL@CWriteableJavaRegistryEntry@Registry@Manager@Java@@QAEXJABVTDesC16@@@Z @ 100 NONAME ; void Java::Manager::Registry::CWriteableJavaRegistryEntry::SetPropertyL(long, class TDesC16 const &)
	?SetPropertyL@CWriteableJavaRegistryEntry@Registry@Manager@Java@@UAEXPAVCJavaProperty@234@@Z @ 101 NONAME ; void Java::Manager::Registry::CWriteableJavaRegistryEntry::SetPropertyL(class Java::Manager::Registry::CJavaProperty *)
	?SetPropertyL@CWriteableJavaRegistryPackageEntry@Registry@Manager@Java@@UAEXPAVCJavaProperty@234@@Z @ 102 NONAME ABSENT ; void Java::Manager::Registry::CWriteableJavaRegistryPackageEntry::SetPropertyL(class Java::Manager::Registry::CJavaProperty *)
	?SetRegistryEntryL@CWriteableJavaRegistry@Registry@Manager@Java@@QBEXABVCWriteableJavaRegistryEntry@234@@Z @ 103 NONAME ABSENT ; void Java::Manager::Registry::CWriteableJavaRegistry::SetRegistryEntryL(class Java::Manager::Registry::CWriteableJavaRegistryEntry const &) const
	?SetResidentL@CWriteableJavaRegistryApplicationEntry@Registry@Manager@Java@@QAEXH@Z @ 104 NONAME ; void Java::Manager::Registry::CWriteableJavaRegistryApplicationEntry::SetResidentL(int)
	?SetSizeL@CWriteableJavaRegistryPackageEntry@Registry@Manager@Java@@QAEXH@Z @ 105 NONAME ; void Java::Manager::Registry::CWriteableJavaRegistryPackageEntry::SetSizeL(int)
	?SetStartableL@CWriteableJavaRegistryApplicationEntry@Registry@Manager@Java@@QAEXH@Z @ 106 NONAME ; void Java::Manager::Registry::CWriteableJavaRegistryApplicationEntry::SetStartableL(int)
	?SetTypeL@CWriteableJavaRegistryEntry@Registry@Manager@Java@@QAEXW4TJavaRegistryEntryType@4@@Z @ 107 NONAME ; void Java::Manager::Registry::CWriteableJavaRegistryEntry::SetTypeL(enum Java::TJavaRegistryEntryType)
	?SetUninstallableL@CWriteableJavaRegistryPackageEntry@Registry@Manager@Java@@QAEXH@Z @ 108 NONAME ; void Java::Manager::Registry::CWriteableJavaRegistryPackageEntry::SetUninstallableL(int)
	?SetVendorL@CWriteableJavaRegistryPackageEntry@Registry@Manager@Java@@QAEXABVTDesC16@@@Z @ 109 NONAME ; void Java::Manager::Registry::CWriteableJavaRegistryPackageEntry::SetVendorL(class TDesC16 const &)
	?SetVersionL@CWriteableJavaRegistryPackageEntry@Registry@Manager@Java@@QAEXABVTAppVersion@@@Z @ 110 NONAME ; void Java::Manager::Registry::CWriteableJavaRegistryPackageEntry::SetVersionL(class TAppVersion const &)
	?SetVisibleL@CWriteableJavaRegistryApplicationEntry@Registry@Manager@Java@@QAEXH@Z @ 111 NONAME ; void Java::Manager::Registry::CWriteableJavaRegistryApplicationEntry::SetVisibleL(int)
	?Size@CWriteableJavaRegistryPackageEntry@Registry@Manager@Java@@QBEHXZ @ 112 NONAME ; int Java::Manager::Registry::CWriteableJavaRegistryPackageEntry::Size(void) const
	?StoreCertificateChainsL@JavaRegConverter@Registry@Manager@Java@@SAXABV?$RPointerArray@VHBufC8@@@@AAPAVHBufC16@@@Z @ 113 NONAME ; void Java::Manager::Registry::JavaRegConverter::StoreCertificateChainsL(class RPointerArray<class HBufC8> const &, class HBufC16 * &)
	?StoreTAppVersionL@JavaRegConverter@Registry@Manager@Java@@SAXABVTAppVersion@@AAPAVHBufC16@@@Z @ 114 NONAME ; void Java::Manager::Registry::JavaRegConverter::StoreTAppVersionL(class TAppVersion const &, class HBufC16 * &)
	?StoreTBoolL@JavaRegConverter@Registry@Manager@Java@@SAXHAAPAVHBufC16@@@Z @ 115 NONAME ; void Java::Manager::Registry::JavaRegConverter::StoreTBoolL(int, class HBufC16 * &)
	?StoreTIntL@JavaRegConverter@Registry@Manager@Java@@SAXJAAPAVHBufC16@@@Z @ 116 NONAME ; void Java::Manager::Registry::JavaRegConverter::StoreTIntL(long, class HBufC16 * &)
	?StoreUnicodeDescriptorsL@JavaRegConverter@Registry@Manager@Java@@SAXABV?$RPointerArray@VHBufC16@@@@AAPAVHBufC16@@@Z @ 117 NONAME ; void Java::Manager::Registry::JavaRegConverter::StoreUnicodeDescriptorsL(class RPointerArray<class HBufC16> const &, class HBufC16 * &)
	?Type@CJavaRegistryEntry@Java@@QBE?AW4TJavaRegistryEntryType@2@XZ @ 118 NONAME ; enum Java::TJavaRegistryEntryType Java::CJavaRegistryEntry::Type(void) const
	?Type@CWriteableJavaRegistryEntry@Registry@Manager@Java@@QBE?AW4TJavaRegistryEntryType@4@XZ @ 119 NONAME ; enum Java::TJavaRegistryEntryType Java::Manager::Registry::CWriteableJavaRegistryEntry::Type(void) const
	?Uid@CJavaRegistryEntry@Java@@QBE?AVTUid@@XZ @ 120 NONAME ; class TUid Java::CJavaRegistryEntry::Uid(void) const
	?Uid@CWriteableJavaRegistryEntry@Registry@Manager@Java@@QBE?AVTUid@@XZ @ 121 NONAME ; class TUid Java::Manager::Registry::CWriteableJavaRegistryEntry::Uid(void) const
	?Value@CJavaProperty@Registry@Manager@Java@@QBEABVTDesC16@@XZ @ 122 NONAME ; class TDesC16 const & Java::Manager::Registry::CJavaProperty::Value(void) const
	?Vendor@CJavaRegistryPackageEntry@Java@@QBEABVTDesC16@@XZ @ 123 NONAME ; class TDesC16 const & Java::CJavaRegistryPackageEntry::Vendor(void) const
	?Vendor@CWriteableJavaRegistryPackageEntry@Registry@Manager@Java@@QBEABVTDesC16@@XZ @ 124 NONAME ; class TDesC16 const & Java::Manager::Registry::CWriteableJavaRegistryPackageEntry::Vendor(void) const
	?Version@CJavaRegistryPackageEntry@Java@@QBE?AVTAppVersion@@XZ @ 125 NONAME ; class TAppVersion Java::CJavaRegistryPackageEntry::Version(void) const
	?Version@CWriteableJavaRegistryPackageEntry@Registry@Manager@Java@@QBE?AVTAppVersion@@XZ @ 126 NONAME ; class TAppVersion Java::Manager::Registry::CWriteableJavaRegistryPackageEntry::Version(void) const
	?SetPropertyL@CWriteableJavaRegistryApplicationEntry@Registry@Manager@Java@@UAEXPAVCJavaProperty@234@@Z @ 127 NONAME ; void Java::Manager::Registry::CWriteableJavaRegistryApplicationEntry::SetPropertyL(class Java::Manager::Registry::CJavaProperty *)
	?DrmContentId@CJavaRegistryEntry@Java@@QBEABVTDesC16@@XZ @ 128 NONAME ; class TDesC16 const & Java::CJavaRegistryEntry::DrmContentId(void) const
	?DrmContentId@CWriteableJavaRegistryEntry@Registry@Manager@Java@@QBEABVTDesC16@@XZ @ 129 NONAME ; class TDesC16 const & Java::Manager::Registry::CWriteableJavaRegistryEntry::DrmContentId(void) const
	?SetDrmContentIdL@CWriteableJavaRegistryEntry@Registry@Manager@Java@@QAEXABVTDesC16@@@Z @ 130 NONAME ; void Java::Manager::Registry::CWriteableJavaRegistryEntry::SetDrmContentIdL(class TDesC16 const &)
	??1CJavaAttribute@Registry@Manager@Java@@UAE@XZ @ 131 NONAME ABSENT ; Java::Manager::Registry::CJavaAttribute::~CJavaAttribute(void)
	??1CJavaAttributes@Registry@Manager@Java@@UAE@XZ @ 132 NONAME ABSENT ; Java::Manager::Registry::CJavaAttributes::~CJavaAttributes(void)
	??1CWriteableJavaRegistryApplicationEntry@Registry@Manager@Java@@UAE@XZ @ 133 NONAME ; Java::Manager::Registry::CWriteableJavaRegistryApplicationEntry::~CWriteableJavaRegistryApplicationEntry(void)
	?AddAttributeL@CJavaAttributes@Registry@Manager@Java@@QAEXABVTDesC16@@0H@Z @ 134 NONAME ABSENT ; void Java::Manager::Registry::CJavaAttributes::AddAttributeL(class TDesC16 const &, class TDesC16 const &, int)
	?AddAttributeL@CJavaAttributes@Registry@Manager@Java@@QAEXPAVMJavaAttribute@234@@Z @ 135 NONAME ABSENT ; void Java::Manager::Registry::CJavaAttributes::AddAttributeL(class Java::Manager::Registry::MJavaAttribute *)
	?Attribute@CJavaAttributes@Registry@Manager@Java@@QBEPBVMJavaAttribute@234@ABVTDesC16@@@Z @ 136 NONAME ABSENT ; class Java::Manager::Registry::MJavaAttribute const * Java::Manager::Registry::CJavaAttributes::Attribute(class TDesC16 const &) const
	?AttributeL@CJavaRegistryEntry@Java@@QBEPBVMJavaAttribute@Registry@Manager@2@ABVTDesC16@@@Z @ 137 NONAME ABSENT ; class Java::Manager::Registry::MJavaAttribute const * Java::CJavaRegistryEntry::AttributeL(class TDesC16 const &) const
	?AttributeL@CWriteableJavaRegistryApplicationEntry@Registry@Manager@Java@@UAEPBVMJavaAttribute@234@ABVTDesC16@@@Z @ 138 NONAME ABSENT ; class Java::Manager::Registry::MJavaAttribute const * Java::Manager::Registry::CWriteableJavaRegistryApplicationEntry::AttributeL(class TDesC16 const &) const
	?AttributeL@CWriteableJavaRegistryEntry@Registry@Manager@Java@@UAEPBVMJavaAttribute@234@ABVTDesC16@@@Z @ 139 NONAME ABSENT ; class Java::Manager::Registry::MJavaAttribute const * Java::Manager::Registry::CWriteableJavaRegistryEntry::AttributeL(class TDesC16 const &) const
	?AttributeL@CWriteableJavaRegistryPackageEntry@Registry@Manager@Java@@UAEPBVMJavaAttribute@234@ABVTDesC16@@@Z @ 140 NONAME ABSENT ; class Java::Manager::Registry::MJavaAttribute const * Java::Manager::Registry::CWriteableJavaRegistryPackageEntry::AttributeL(class TDesC16 const &) const
	?Attributes@CJavaAttributes@Registry@Manager@Java@@QBEABV?$RPointerArray@VMJavaAttribute@Registry@Manager@Java@@@@XZ @ 141 NONAME ABSENT ; class RPointerArray<class Java::Manager::Registry::MJavaAttribute> const & Java::Manager::Registry::CJavaAttributes::Attributes(void) const
	?AttributesL@CJavaRegistryEntry@Java@@QBEABV?$RPointerArray@VMJavaAttribute@Registry@Manager@Java@@@@XZ @ 142 NONAME ABSENT ; class RPointerArray<class Java::Manager::Registry::MJavaAttribute> const & Java::CJavaRegistryEntry::AttributesL(void) const
	?AttributesL@CWriteableJavaRegistryApplicationEntry@Registry@Manager@Java@@UAEABV?$RPointerArray@VMJavaAttribute@Registry@Manager@Java@@@@XZ @ 143 NONAME ABSENT ; class RPointerArray<class Java::Manager::Registry::MJavaAttribute> const & Java::Manager::Registry::CWriteableJavaRegistryApplicationEntry::AttributesL(void) const
	?AttributesL@CWriteableJavaRegistryEntry@Registry@Manager@Java@@UAEABV?$RPointerArray@VMJavaAttribute@Registry@Manager@Java@@@@XZ @ 144 NONAME ABSENT ; class RPointerArray<class Java::Manager::Registry::MJavaAttribute> const & Java::Manager::Registry::CWriteableJavaRegistryEntry::AttributesL(void) const
	?AttributesL@CWriteableJavaRegistryPackageEntry@Registry@Manager@Java@@UAEABV?$RPointerArray@VMJavaAttribute@Registry@Manager@Java@@@@XZ @ 145 NONAME ABSENT ; class RPointerArray<class Java::Manager::Registry::MJavaAttribute> const & Java::Manager::Registry::CWriteableJavaRegistryPackageEntry::AttributesL(void) const
	?Count@CJavaAttributes@Registry@Manager@Java@@QBEHXZ @ 146 NONAME ABSENT ; int Java::Manager::Registry::CJavaAttributes::Count(void) const
	?DeleteAttributes@CJavaAttributes@Registry@Manager@Java@@QAEXXZ @ 147 NONAME ABSENT ; void Java::Manager::Registry::CJavaAttributes::DeleteAttributes(void)
	?NewL@CJavaAttribute@Registry@Manager@Java@@SAPAV1234@ABVTDesC16@@0H@Z @ 148 NONAME ABSENT ; class Java::Manager::Registry::CJavaAttribute * Java::Manager::Registry::CJavaAttribute::NewL(class TDesC16 const &, class TDesC16 const &, int)
	?NewL@CJavaAttributes@Registry@Manager@Java@@SAPAV1234@PAVTDesC8@@@Z @ 149 NONAME ABSENT ; class Java::Manager::Registry::CJavaAttributes * Java::Manager::Registry::CJavaAttributes::NewL(class TDesC8 *)
	?NewL@CJavaAttributes@Registry@Manager@Java@@SAPAV1234@XZ @ 150 NONAME ABSENT ; class Java::Manager::Registry::CJavaAttributes * Java::Manager::Registry::CJavaAttributes::NewL(void)
	?NewLC@CJavaAttribute@Registry@Manager@Java@@SAPAV1234@ABVTDesC16@@0H@Z @ 151 NONAME ABSENT ; class Java::Manager::Registry::CJavaAttribute * Java::Manager::Registry::CJavaAttribute::NewLC(class TDesC16 const &, class TDesC16 const &, int)
	?NewLC@CJavaAttributes@Registry@Manager@Java@@SAPAV1234@PAVTDesC8@@@Z @ 152 NONAME ABSENT ; class Java::Manager::Registry::CJavaAttributes * Java::Manager::Registry::CJavaAttributes::NewLC(class TDesC8 *)
	?NewLC@CJavaAttributes@Registry@Manager@Java@@SAPAV1234@XZ @ 153 NONAME ABSENT ; class Java::Manager::Registry::CJavaAttributes * Java::Manager::Registry::CJavaAttributes::NewLC(void)
	?SerializeAttributesL@CWriteableJavaRegistryEntry@Registry@Manager@Java@@UAEXXZ @ 154 NONAME ; void Java::Manager::Registry::CWriteableJavaRegistryEntry::SerializeAttributesL(void)
	?SerializeAttributesL@CWriteableJavaRegistryPackageEntry@Registry@Manager@Java@@UAEXXZ @ 155 NONAME ABSENT ; void Java::Manager::Registry::CWriteableJavaRegistryPackageEntry::SerializeAttributesL(void)
	?SerializedAttributesL@CJavaAttributes@Registry@Manager@Java@@QBEPAVHBufC8@@XZ @ 156 NONAME ABSENT ; class HBufC8 * Java::Manager::Registry::CJavaAttributes::SerializedAttributesL(void) const
	?SetAttributeL@CWriteableJavaRegistryPackageEntry@Registry@Manager@Java@@QAEXABVTDesC16@@0H@Z @ 157 NONAME ; void Java::Manager::Registry::CWriteableJavaRegistryPackageEntry::SetAttributeL(class TDesC16 const &, class TDesC16 const &, int)
	?SetRegistryEntryL@CWriteableJavaRegistry@Registry@Manager@Java@@QBEXAAVCWriteableJavaRegistryEntry@234@@Z @ 158 NONAME ABSENT ; void Java::Manager::Registry::CWriteableJavaRegistry::SetRegistryEntryL(class Java::Manager::Registry::CWriteableJavaRegistryEntry &) const
	?Size@CJavaAttributes@Registry@Manager@Java@@QBEHXZ @ 159 NONAME ABSENT ; int Java::Manager::Registry::CJavaAttributes::Size(void) const
	??1CJavaAttribute@Java@@UAE@XZ @ 160 NONAME ABSENT ; Java::CJavaAttribute::~CJavaAttribute(void)
	?AddAttributeL@CJavaAttributes@Registry@Manager@Java@@QAEXPAVMJavaAttribute@4@@Z @ 161 NONAME ABSENT ; void Java::Manager::Registry::CJavaAttributes::AddAttributeL(class Java::MJavaAttribute *)
	?Attribute@CJavaAttributes@Registry@Manager@Java@@QBEPBVMJavaAttribute@4@ABVTDesC16@@@Z @ 162 NONAME ABSENT ; class Java::MJavaAttribute const * Java::Manager::Registry::CJavaAttributes::Attribute(class TDesC16 const &) const
	?AttributeL@CJavaRegistryEntry@Java@@QBEPBVMJavaAttribute@2@ABVTDesC16@@@Z @ 163 NONAME ; class Java::MJavaAttribute const * Java::CJavaRegistryEntry::AttributeL(class TDesC16 const &) const
	?AttributeL@CWriteableJavaRegistryApplicationEntry@Registry@Manager@Java@@UBEPBVMJavaAttribute@4@ABVTDesC16@@@Z @ 164 NONAME ; class Java::MJavaAttribute const * Java::Manager::Registry::CWriteableJavaRegistryApplicationEntry::AttributeL(class TDesC16 const &) const
	?AttributeL@CWriteableJavaRegistryEntry@Registry@Manager@Java@@UBEPBVMJavaAttribute@4@ABVTDesC16@@@Z @ 165 NONAME ; class Java::MJavaAttribute const * Java::Manager::Registry::CWriteableJavaRegistryEntry::AttributeL(class TDesC16 const &) const
	?AttributeL@CWriteableJavaRegistryPackageEntry@Registry@Manager@Java@@UBEPBVMJavaAttribute@4@ABVTDesC16@@@Z @ 166 NONAME ; class Java::MJavaAttribute const * Java::Manager::Registry::CWriteableJavaRegistryPackageEntry::AttributeL(class TDesC16 const &) const
	?Attributes@CJavaAttributes@Registry@Manager@Java@@QBEABV?$RPointerArray@VMJavaAttribute@Java@@@@XZ @ 167 NONAME ABSENT ; class RPointerArray<class Java::MJavaAttribute> const & Java::Manager::Registry::CJavaAttributes::Attributes(void) const
	?AttributesL@CJavaRegistryEntry@Java@@QBEABV?$RPointerArray@VMJavaAttribute@Java@@@@XZ @ 168 NONAME ; class RPointerArray<class Java::MJavaAttribute> const & Java::CJavaRegistryEntry::AttributesL(void) const
	?AttributesL@CWriteableJavaRegistryApplicationEntry@Registry@Manager@Java@@UBEABV?$RPointerArray@VMJavaAttribute@Java@@@@XZ @ 169 NONAME ; class RPointerArray<class Java::MJavaAttribute> const & Java::Manager::Registry::CWriteableJavaRegistryApplicationEntry::AttributesL(void) const
	?AttributesL@CWriteableJavaRegistryEntry@Registry@Manager@Java@@UBEABV?$RPointerArray@VMJavaAttribute@Java@@@@XZ @ 170 NONAME ; class RPointerArray<class Java::MJavaAttribute> const & Java::Manager::Registry::CWriteableJavaRegistryEntry::AttributesL(void) const
	?AttributesL@CWriteableJavaRegistryPackageEntry@Registry@Manager@Java@@UBEABV?$RPointerArray@VMJavaAttribute@Java@@@@XZ @ 171 NONAME ; class RPointerArray<class Java::MJavaAttribute> const & Java::Manager::Registry::CWriteableJavaRegistryPackageEntry::AttributesL(void) const
	?NewL@CJavaAttribute@Java@@SAPAV12@ABVTDesC16@@0H@Z @ 172 NONAME ABSENT ; class Java::CJavaAttribute * Java::CJavaAttribute::NewL(class TDesC16 const &, class TDesC16 const &, int)
	?NewLC@CJavaAttribute@Java@@SAPAV12@ABVTDesC16@@0H@Z @ 173 NONAME ABSENT ; class Java::CJavaAttribute * Java::CJavaAttribute::NewLC(class TDesC16 const &, class TDesC16 const &, int)
	?GetRegistryEntryUidsL@CWriteableJavaRegistry@Registry@Manager@Java@@QBEXABV?$RPointerArray@VCJavaProperty@Registry@Manager@Java@@@@AAV?$RArray@VTUid@@@@H@Z @ 174 NONAME ; void Java::Manager::Registry::CWriteableJavaRegistry::GetRegistryEntryUidsL(class RPointerArray<class Java::Manager::Registry::CJavaProperty> const &, class RArray<class TUid> &, int) const
	?GetRegistryEntryUidsL@CWriteableJavaRegistry@Registry@Manager@Java@@QBEXW4TJavaRegistryEntryType@4@AAV?$RArray@VTUid@@@@H@Z @ 175 NONAME ; void Java::Manager::Registry::CWriteableJavaRegistry::GetRegistryEntryUidsL(enum Java::TJavaRegistryEntryType, class RArray<class TUid> &, int) const
	?RegistryEntryL@CWriteableJavaRegistry@Registry@Manager@Java@@QBEPAVCWriteableJavaRegistryEntry@234@ABVTUid@@H@Z @ 176 NONAME ; class Java::Manager::Registry::CWriteableJavaRegistryEntry * Java::Manager::Registry::CWriteableJavaRegistry::RegistryEntryL(class TUid const &, int) const
	?RemoveRegistryEntryL@CWriteableJavaRegistry@Registry@Manager@Java@@QBEXABVTUid@@HH@Z @ 177 NONAME ABSENT ; void Java::Manager::Registry::CWriteableJavaRegistry::RemoveRegistryEntryL(class TUid const &, int, int) const
	?UsedUserDiskSpace@CJavaRegistryPackageEntry@Java@@QBE_JXZ @ 178 NONAME ; long long Java::CJavaRegistryPackageEntry::UsedUserDiskSpace(void) const

