EXPORTS
	??0CSwtButtonProxy@@IAE@XZ @ 1 NONAME ; CSwtButtonProxy::CSwtButtonProxy(void)
	??1CSwtBrowserDialogsProviderProxy@@UAE@XZ @ 2 NONAME ; CSwtBrowserDialogsProviderProxy::~CSwtBrowserDialogsProviderProxy(void)
	??1CSwtButtonProxy@@UAE@XZ @ 3 NONAME ; CSwtButtonProxy::~CSwtButtonProxy(void)
	??1CSwtButtonStateProxy@@UAE@XZ @ 4 NONAME ; CSwtButtonStateProxy::~CSwtButtonStateProxy(void)
	??1CSwtComboProxy@@UAE@XZ @ 5 NONAME ; CSwtComboProxy::~CSwtComboProxy(void)
	??1CSwtMIDRemConObserver@@UAE@XZ @ 6 NONAME ; CSwtMIDRemConObserver::~CSwtMIDRemConObserver(void)
	?AccessPointDataL@CSwtBrowserApDataHandler@@QAEXKAAVCApAccessPointItem@@@Z @ 7 NONAME ; void CSwtBrowserApDataHandler::AccessPointDataL(unsigned long, class CApAccessPointItem &)
	?ActivateL@CSwtButtonProxy@@UAEXXZ @ 8 NONAME ; void CSwtButtonProxy::ActivateL(void)
	?AddItemL@CSwtComboProxy@@QAEHPBVTDesC16@@@Z @ 9 NONAME ; int CSwtComboProxy::AddItemL(class TDesC16 const *)
	?AddMediaKeysListenerL@CSwtMIDRemConObserver@@QAEXPAVMSwtMediaKeysListener@@@Z @ 10 NONAME ; void CSwtMIDRemConObserver::AddMediaKeysListenerL(class MSwtMediaKeysListener *)
	?ApDb@CSwtBrowserActiveApDb@@QBEAAVCActiveApDb@@XZ @ 11 NONAME ; class CActiveApDb & CSwtBrowserActiveApDb::ApDb(void) const
	?ApItem@CSwtBrowserApItem@@QAEAAVCApAccessPointItem@@XZ @ 12 NONAME ; class CApAccessPointItem & CSwtBrowserApItem::ApItem(void)
	?BearerTypeL@CSwtBrowserApUtils@@QAEHK@Z @ 13 NONAME ; int CSwtBrowserApUtils::BearerTypeL(unsigned long)
	?ButtonFlags@CSwtButtonProxy@@QBEHXZ @ 14 NONAME ; int CSwtButtonProxy::ButtonFlags(void) const
	?CancelAll@CSwtBrowserDialogsProviderProxy@@UAEXXZ @ 15 NONAME ; void CSwtBrowserDialogsProviderProxy::CancelAll(void)
	?CommsDb@CSwtBrowserActiveApDb@@QBEAAVCCommsDatabase@@XZ @ 16 NONAME ; class CCommsDatabase & CSwtBrowserActiveApDb::CommsDb(void) const
	?ComponentControl@CSwtButtonProxy@@UBEPAVCCoeControl@@H@Z @ 17 NONAME ; class CCoeControl * CSwtButtonProxy::ComponentControl(int) const
	?ComponentControl@CSwtComboProxy@@UBEPAVCCoeControl@@H@Z @ 18 NONAME ; class CCoeControl * CSwtComboProxy::ComponentControl(int) const
	?ConstructL@CSwtButtonProxy@@MAEXPAVCCoeControl@@ABVTDesC16@@HHHHHHHH11HHABVTAknsItemID@@222@Z @ 19 NONAME ; void CSwtButtonProxy::ConstructL(class CCoeControl *, class TDesC16 const &, int, int, int, int, int, int, int, int, class TDesC16 const &, class TDesC16 const &, int, int, class TAknsItemID const &, class TAknsItemID const &, class TAknsItemID const &, class TAknsItemID const &)
	?ConstructL@CSwtButtonProxy@@MAEXPAVCCoeControl@@PAVCGulIcon@@111ABVTDesC16@@2HH@Z @ 20 NONAME ; void CSwtButtonProxy::ConstructL(class CCoeControl *, class CGulIcon *, class CGulIcon *, class CGulIcon *, class CGulIcon *, class TDesC16 const &, class TDesC16 const &, int, int)
	?ConstructL@CSwtButtonProxy@@MAEXPAVCCoeControl@@PAVCGulIcon@@ABVTDesC16@@H@Z @ 21 NONAME ; void CSwtButtonProxy::ConstructL(class CCoeControl *, class CGulIcon *, class TDesC16 const &, int)
	?CountComponentControls@CSwtButtonProxy@@UBEHXZ @ 22 NONAME ; int CSwtButtonProxy::CountComponentControls(void) const
	?CountComponentControls@CSwtComboProxy@@UBEHXZ @ 23 NONAME ; int CSwtComboProxy::CountComponentControls(void) const
	?DialogAlertL@CSwtBrowserDialogsProviderProxy@@UAEXABVTDesC16@@0@Z @ 24 NONAME ; void CSwtBrowserDialogsProviderProxy::DialogAlertL(class TDesC16 const &, class TDesC16 const &)
	?DialogConfirmL@CSwtBrowserDialogsProviderProxy@@UAEHABVTDesC16@@000@Z @ 25 NONAME ; int CSwtBrowserDialogsProviderProxy::DialogConfirmL(class TDesC16 const &, class TDesC16 const &, class TDesC16 const &, class TDesC16 const &)
	?DialogDisplayPageImagesL@CSwtBrowserDialogsProviderProxy@@UAEXAAV?$CArrayFixFlat@VTBrCtlImageCarrier@@@@@Z @ 26 NONAME ; void CSwtBrowserDialogsProviderProxy::DialogDisplayPageImagesL(class CArrayFixFlat<class TBrCtlImageCarrier> &)
	?DialogDownloadObjectL@CSwtBrowserDialogsProviderProxy@@UAEHPAVCBrCtlObjectInfo@@@Z @ 27 NONAME ; int CSwtBrowserDialogsProviderProxy::DialogDownloadObjectL(class CBrCtlObjectInfo *)
	?DialogFileSelectLC@CSwtBrowserDialogsProviderProxy@@UAEHABVTDesC16@@0AAPAVHBufC16@@@Z @ 28 NONAME ; int CSwtBrowserDialogsProviderProxy::DialogFileSelectLC(class TDesC16 const &, class TDesC16 const &, class HBufC16 * &)
	?DialogFindL@CSwtBrowserDialogsProviderProxy@@UAEXXZ @ 29 NONAME ; void CSwtBrowserDialogsProviderProxy::DialogFindL(void)
	?DialogNoteL@CSwtBrowserDialogsProviderProxy@@UAEXABVTDesC16@@@Z @ 30 NONAME ; void CSwtBrowserDialogsProviderProxy::DialogNoteL(class TDesC16 const &)
	?DialogNotifyErrorL@CSwtBrowserDialogsProviderProxy@@UAEXH@Z @ 31 NONAME ; void CSwtBrowserDialogsProviderProxy::DialogNotifyErrorL(int)
	?DialogNotifyHttpErrorL@CSwtBrowserDialogsProviderProxy@@UAEXHABVTDesC16@@@Z @ 32 NONAME ; void CSwtBrowserDialogsProviderProxy::DialogNotifyHttpErrorL(int, class TDesC16 const &)
	?DialogPromptLC@CSwtBrowserDialogsProviderProxy@@UAEHABVTDesC16@@00AAPAVHBufC16@@@Z @ 33 NONAME ; int CSwtBrowserDialogsProviderProxy::DialogPromptLC(class TDesC16 const &, class TDesC16 const &, class TDesC16 const &, class HBufC16 * &)
	?DialogSelectOptionL@CSwtBrowserDialogsProviderProxy@@UAEHABVTDesC16@@W4TBrCtlSelectOptionType@@AAV?$CArrayFix@VTBrCtlSelectOptionData@@@@@Z @ 34 NONAME ; int CSwtBrowserDialogsProviderProxy::DialogSelectOptionL(class TDesC16 const &, enum TBrCtlSelectOptionType, class CArrayFix<class TBrCtlSelectOptionData> &)
	?DialogUserAuthenticationLC@CSwtBrowserDialogsProviderProxy@@UAEHABVTDesC16@@00AAPAVHBufC16@@1H@Z @ 35 NONAME ; int CSwtBrowserDialogsProviderProxy::DialogUserAuthenticationLC(class TDesC16 const &, class TDesC16 const &, class TDesC16 const &, class HBufC16 * &, class HBufC16 * &, int)
	?FeatureSupported@CSwtLafFacade@@SAHH@Z @ 36 NONAME ; int CSwtLafFacade::FeatureSupported(int)
	?FirstAccessPointUidL@CSwtBrowserActiveApDb@@QAEKXZ @ 37 NONAME ; unsigned long CSwtBrowserActiveApDb::FirstAccessPointUidL(void)
	?Flags@CSwtButtonProxy@@QBEHXZ @ 38 NONAME ; int CSwtButtonProxy::Flags(void) const
	?Flags@CSwtButtonStateProxy@@QBEHXZ @ 39 NONAME ; int CSwtButtonStateProxy::Flags(void) const
	?Flags@CSwtComboProxy@@QBEHXZ @ 40 NONAME ; int CSwtComboProxy::Flags(void) const
	?GetChoiceListPaneLayout@CSwtLafFacade@@SA?AUTSwtLafFacadeWindowLineLayout@1@XZ @ 41 NONAME ; struct CSwtLafFacade::TSwtLafFacadeWindowLineLayout CSwtLafFacade::GetChoiceListPaneLayout(void)
	?GetChoiceListPaneT1Layout@CSwtLafFacade@@SA?AUTSwtLafFacadeTextLineLayout@1@XZ @ 42 NONAME ; struct CSwtLafFacade::TSwtLafFacadeTextLineLayout CSwtLafFacade::GetChoiceListPaneT1Layout(void)
	?GetComposeAndLayoutRect@CSwtLafFacade@@SA?AVTAknLayoutRect@@W4TSwtComposeLayoutRectId@1@ABVTRect@@HHH@Z @ 43 NONAME ; class TAknLayoutRect CSwtLafFacade::GetComposeAndLayoutRect(enum CSwtLafFacade::TSwtComposeLayoutRectId, class TRect const &, int, int, int)
	?GetConstant@CSwtLafFacade@@SAHW4TSwtLafFacadeConstantId@1@@Z @ 44 NONAME ; int CSwtLafFacade::GetConstant(enum CSwtLafFacade::TSwtLafFacadeConstantId)
	?GetFlipWatchEnumerationStatus@CSwtLafFacade@@SAHXZ @ 45 NONAME ; int CSwtLafFacade::GetFlipWatchEnumerationStatus(void)
	?GetFlipWatchStatus@CSwtLafFacade@@SAKXZ @ 46 NONAME ; unsigned long CSwtLafFacade::GetFlipWatchStatus(void)
	?GetFlipWatchUid@CSwtLafFacade@@SA?AVTUid@@XZ @ 47 NONAME ; class TUid CSwtLafFacade::GetFlipWatchUid(void)
	?GetFontId@CSwtLafFacade@@SAHW4TSwtLafFacadeFontId@1@HH@Z @ 48 NONAME ; int CSwtLafFacade::GetFontId(enum CSwtLafFacade::TSwtLafFacadeFontId, int, int)
	?GetLanguage@CSwtLafFacade@@SA?AW4TLanguage@@XZ @ 49 NONAME ; enum TLanguage CSwtLafFacade::GetLanguage(void)
	?GetLayoutRect@CSwtLafFacade@@SA?AVTAknLayoutRect@@W4TSwtLafFacadeRectId@1@ABVTRect@@HHH@Z @ 50 NONAME ; class TAknLayoutRect CSwtLafFacade::GetLayoutRect(enum CSwtLafFacade::TSwtLafFacadeRectId, class TRect const &, int, int, int)
	?GetLayoutText@CSwtLafFacade@@SA?AVTAknLayoutText@@W4TSwtLafFacadeTextId@1@ABVTRect@@H@Z @ 51 NONAME ; class TAknLayoutText CSwtLafFacade::GetLayoutText(enum CSwtLafFacade::TSwtLafFacadeTextId, class TRect const &, int)
	?GetUintConstant@CSwtLafFacade@@SAIW4TSwtLafFacadeConstantId@1@@Z @ 52 NONAME ; unsigned int CSwtLafFacade::GetUintConstant(enum CSwtLafFacade::TSwtLafFacadeConstantId)
	?HandleControlEventL@CSwtButtonProxy@@UAEXPAVCCoeControl@@W4TCoeEvent@MCoeControlObserver@@@Z @ 53 NONAME ; void CSwtButtonProxy::HandleControlEventL(class CCoeControl *, enum MCoeControlObserver::TCoeEvent)
	?HandleControlEventL@CSwtComboProxy@@UAEXPAVCCoeControl@@W4TCoeEvent@MCoeControlObserver@@@Z @ 54 NONAME ; void CSwtComboProxy::HandleControlEventL(class CCoeControl *, enum MCoeControlObserver::TCoeEvent)
	?HandlePointerEventL@CSwtButtonProxy@@UAEXABUTPointerEvent@@@Z @ 55 NONAME ; void CSwtButtonProxy::HandlePointerEventL(struct TPointerEvent const &)
	?HandleResourceChange@CSwtButtonProxy@@UAEXH@Z @ 56 NONAME ; void CSwtButtonProxy::HandleResourceChange(int)
	?HandleResourceChange@CSwtComboProxy@@UAEXH@Z @ 57 NONAME ; void CSwtComboProxy::HandleResourceChange(int)
	?HandleUrlEmbeddedL@CSwtBrowserSchemeHandler@@QAEXXZ @ 58 NONAME ; void CSwtBrowserSchemeHandler::HandleUrlEmbeddedL(void)
	?HandleUrlStandaloneL@CSwtBrowserSchemeHandler@@QAEXXZ @ 59 NONAME ; void CSwtBrowserSchemeHandler::HandleUrlStandaloneL(void)
	?HideChoiceList@CSwtComboProxy@@QAEXXZ @ 60 NONAME ; void CSwtComboProxy::HideChoiceList(void)
	?HighlightRect@CSwtButtonProxy@@QBE?AVTRect@@XZ @ 61 NONAME ; class TRect CSwtButtonProxy::HighlightRect(void) const
	?IapIdFromWapIdL@CSwtBrowserApUtils@@QAEKK@Z @ 62 NONAME ; unsigned long CSwtBrowserApUtils::IapIdFromWapIdL(unsigned long)
	?Icon@CSwtButtonProxy@@QBEPBVCGulIcon@@XZ @ 63 NONAME ; class CGulIcon const * CSwtButtonProxy::Icon(void) const
	?Icon@CSwtButtonStateProxy@@QBEPBVCGulIcon@@XZ @ 64 NONAME ; class CGulIcon const * CSwtButtonStateProxy::Icon(void) const
	?InitFeatureManagerL@CSwtLafFacade@@SAXXZ @ 65 NONAME ; void CSwtLafFacade::InitFeatureManagerL(void)
	?IsDimmed@CSwtButtonProxy@@QBEHXZ @ 66 NONAME ; int CSwtButtonProxy::IsDimmed(void) const
	?IsFocused@CSwtButtonProxy@@QBEHXZ @ 67 NONAME ; int CSwtButtonProxy::IsFocused(void) const
	?IsFocused@CSwtComboProxy@@QBEHXZ @ 68 NONAME ; int CSwtComboProxy::IsFocused(void) const
	?IsLandscapeOrientation@CSwtLafFacade@@SAHXZ @ 69 NONAME ; int CSwtLafFacade::IsLandscapeOrientation(void)
	?IsVpnApL@CSwtBrowserVpnApEngine@@QAEHK@Z @ 70 NONAME ; int CSwtBrowserVpnApEngine::IsVpnApL(unsigned long)
	?JavaAPNL@CSwtLafFacade@@SAKK@Z @ 71 NONAME ; unsigned long CSwtLafFacade::JavaAPNL(unsigned long)
	?MakeVisible@CSwtButtonProxy@@UAEXH@Z @ 72 NONAME ; void CSwtButtonProxy::MakeVisible(int)
	?MinimumSize@CSwtButtonProxy@@UAE?AVTSize@@XZ @ 73 NONAME ; class TSize CSwtButtonProxy::MinimumSize(void)
	?MinimumSize@CSwtComboProxy@@UAE?AVTSize@@XZ @ 74 NONAME ; class TSize CSwtComboProxy::MinimumSize(void)
	?NewL@CSwtBrowserActiveApDb@@SAPAV1@XZ @ 75 NONAME ; class CSwtBrowserActiveApDb * CSwtBrowserActiveApDb::NewL(void)
	?NewL@CSwtBrowserApDataHandler@@SAPAV1@AAVCCommsDatabase@@@Z @ 76 NONAME ; class CSwtBrowserApDataHandler * CSwtBrowserApDataHandler::NewL(class CCommsDatabase &)
	?NewL@CSwtBrowserApItem@@SAPAV1@XZ @ 77 NONAME ; class CSwtBrowserApItem * CSwtBrowserApItem::NewL(void)
	?NewL@CSwtBrowserApUtils@@SAPAV1@AAVCCommsDatabase@@@Z @ 78 NONAME ; class CSwtBrowserApUtils * CSwtBrowserApUtils::NewL(class CCommsDatabase &)
	?NewL@CSwtBrowserDialogsProviderProxy@@SAPAV1@PAVMSwtBrowserDialogsProviderObserver@@@Z @ 79 NONAME ; class CSwtBrowserDialogsProviderProxy * CSwtBrowserDialogsProviderProxy::NewL(class MSwtBrowserDialogsProviderObserver *)
	?NewL@CSwtBrowserSchemeHandler@@SAPAV1@ABVTDesC16@@@Z @ 80 NONAME ; class CSwtBrowserSchemeHandler * CSwtBrowserSchemeHandler::NewL(class TDesC16 const &)
	?NewL@CSwtBrowserVpnApEngine@@SAPAV1@AAVCCommsDatabase@@@Z @ 81 NONAME ; class CSwtBrowserVpnApEngine * CSwtBrowserVpnApEngine::NewL(class CCommsDatabase &)
	?NewL@CSwtBrowserVpnApItem@@SAPAV1@XZ @ 82 NONAME ; class CSwtBrowserVpnApItem * CSwtBrowserVpnApItem::NewL(void)
	?NewL@CSwtButtonProxy@@SAPAV1@PAVCCoeControl@@ABVTDesC16@@HHHHHHHH11HHABVTAknsItemID@@222@Z @ 83 NONAME ; class CSwtButtonProxy * CSwtButtonProxy::NewL(class CCoeControl *, class TDesC16 const &, int, int, int, int, int, int, int, int, class TDesC16 const &, class TDesC16 const &, int, int, class TAknsItemID const &, class TAknsItemID const &, class TAknsItemID const &, class TAknsItemID const &)
	?NewL@CSwtButtonProxy@@SAPAV1@PAVCCoeControl@@PAVCGulIcon@@111ABVTDesC16@@2HH@Z @ 84 NONAME ; class CSwtButtonProxy * CSwtButtonProxy::NewL(class CCoeControl *, class CGulIcon *, class CGulIcon *, class CGulIcon *, class CGulIcon *, class TDesC16 const &, class TDesC16 const &, int, int)
	?NewL@CSwtButtonProxy@@SAPAV1@PAVCCoeControl@@PAVCGulIcon@@ABVTDesC16@@H@Z @ 85 NONAME ; class CSwtButtonProxy * CSwtButtonProxy::NewL(class CCoeControl *, class CGulIcon *, class TDesC16 const &, int)
	?NewL@CSwtButtonStateProxy@@SAPAV1@AAVCAknButtonState@@@Z @ 86 NONAME ; class CSwtButtonStateProxy * CSwtButtonStateProxy::NewL(class CAknButtonState &)
	?NewL@CSwtComboProxy@@SAPAV1@PAVCCoeControl@@PAVCDesC16Array@@@Z @ 87 NONAME ; class CSwtComboProxy * CSwtComboProxy::NewL(class CCoeControl *, class CDesC16Array *)
	?NewL@CSwtMIDRemConObserver@@SAPAV1@XZ @ 88 NONAME ; class CSwtMIDRemConObserver * CSwtMIDRemConObserver::NewL(void)
	?NewL@CSwtPopupFormProxy@@SAPAV1@ABVTDesC16@@0HHHHHHHHHHPBVCEikImage@@H@Z @ 89 NONAME ; class CSwtPopupFormProxy * CSwtPopupFormProxy::NewL(class TDesC16 const &, class TDesC16 const &, int, int, int, int, int, int, int, int, int, int, class CEikImage const *, int)
	?NewLC@CSwtBrowserApSettingsHandler@@SAPAV1@XZ @ 90 NONAME ; class CSwtBrowserApSettingsHandler * CSwtBrowserApSettingsHandler::NewLC(void)
	?NewLC@CSwtCustomButton@@SAPAV1@ABVTDesC16@@HHHHHHHH00HHABVTAknsItemID@@111@Z @ 91 NONAME ; class CSwtCustomButton * CSwtCustomButton::NewLC(class TDesC16 const &, int, int, int, int, int, int, int, int, class TDesC16 const &, class TDesC16 const &, int, int, class TAknsItemID const &, class TAknsItemID const &, class TAknsItemID const &, class TAknsItemID const &)
	?Observer@CSwtBrowserSchemeHandler@@QAEXPAVMAknServerAppExitObserver@@@Z @ 92 NONAME ; void CSwtBrowserSchemeHandler::Observer(class MAknServerAppExitObserver *)
	?OfferKeyEventL@CSwtButtonProxy@@UAE?AW4TKeyResponse@@ABUTKeyEvent@@W4TEventCode@@@Z @ 93 NONAME ; enum TKeyResponse CSwtButtonProxy::OfferKeyEventL(struct TKeyEvent const &, enum TEventCode)
	?OfferResourceChangeL@CSwtPopupFormProxy@@QAEXHH@Z @ 94 NONAME ; void CSwtPopupFormProxy::OfferResourceChangeL(int, int)
	?PrepareForFocusGainL@CSwtButtonProxy@@UAEXXZ @ 95 NONAME ; void CSwtButtonProxy::PrepareForFocusGainL(void)
	?PrepareForFocusLossL@CSwtButtonProxy@@UAEXXZ @ 96 NONAME ; void CSwtButtonProxy::PrepareForFocusLossL(void)
	?ReadRealIapId@CSwtBrowserVpnApItem@@QAEHAAK@Z @ 97 NONAME ; int CSwtBrowserVpnApItem::ReadRealIapId(unsigned long &)
	?ReadUint@CSwtBrowserVpnApItem@@QAEHIAAK@Z @ 98 NONAME ; int CSwtBrowserVpnApItem::ReadUint(unsigned int, unsigned long &)
	?ReadVpnApUid@CSwtBrowserVpnApItem@@QAEHAAK@Z @ 99 NONAME ; int CSwtBrowserVpnApItem::ReadVpnApUid(unsigned long &)
	?RemoveItem@CSwtComboProxy@@QAEXH@Z @ 100 NONAME ; void CSwtComboProxy::RemoveItem(int)
	?RemoveMediaKeysListener@CSwtMIDRemConObserver@@QAEXPAVMSwtMediaKeysListener@@@Z @ 101 NONAME ; void CSwtMIDRemConObserver::RemoveMediaKeysListener(class MSwtMediaKeysListener *)
	?ResetState@CSwtButtonProxy@@QAEXXZ @ 102 NONAME ; void CSwtButtonProxy::ResetState(void)
	?RunL@CSwtPopupFormProxy@@QAEHXZ @ 103 NONAME ; int CSwtPopupFormProxy::RunL(void)
	?RunSettingsL@CSwtBrowserApSettingsHandler@@QAEHKAAK@Z @ 104 NONAME ; int CSwtBrowserApSettingsHandler::RunSettingsL(unsigned long, unsigned long &)
	?SelectedIndex@CSwtComboProxy@@QBEHXZ @ 105 NONAME ; int CSwtComboProxy::SelectedIndex(void) const
	?SetBackground@CSwtButtonProxy@@QAEXPBVMCoeControlBackground@@@Z @ 106 NONAME ; void CSwtButtonProxy::SetBackground(class MCoeControlBackground const *)
	?SetBackground@CSwtComboProxy@@QAEXPBVMCoeControlBackground@@@Z @ 107 NONAME ; void CSwtComboProxy::SetBackground(class MCoeControlBackground const *)
	?SetDimmed@CSwtButtonProxy@@UAEXH@Z @ 108 NONAME ; void CSwtButtonProxy::SetDimmed(int)
	?SetFlags@CSwtButtonProxy@@QAEXH@Z @ 109 NONAME ; void CSwtButtonProxy::SetFlags(int)
	?SetFlags@CSwtButtonStateProxy@@QAEXH@Z @ 110 NONAME ; void CSwtButtonStateProxy::SetFlags(int)
	?SetFlags@CSwtComboProxy@@QAEXH@Z @ 111 NONAME ; void CSwtComboProxy::SetFlags(int)
	?SetFocus@CSwtButtonProxy@@QAEXHW4TDrawNow@@@Z @ 112 NONAME ; void CSwtButtonProxy::SetFocus(int, enum TDrawNow)
	?SetFocus@CSwtComboProxy@@QAEXHW4TDrawNow@@@Z @ 113 NONAME ; void CSwtComboProxy::SetFocus(int, enum TDrawNow)
	?SetHighlightRect@CSwtButtonProxy@@QAEXABVTRect@@@Z @ 114 NONAME ; void CSwtButtonProxy::SetHighlightRect(class TRect const &)
	?SetIcon@CSwtButtonProxy@@QAEXPAVCGulIcon@@@Z @ 115 NONAME ; void CSwtButtonProxy::SetIcon(class CGulIcon *)
	?SetIcon@CSwtButtonStateProxy@@QAEXPAVCGulIcon@@@Z @ 116 NONAME ; void CSwtButtonStateProxy::SetIcon(class CGulIcon *)
	?SetIconHorizontalAlignment@CSwtButtonProxy@@QAEXH@Z @ 117 NONAME ; void CSwtButtonProxy::SetIconHorizontalAlignment(int)
	?SetIconScaleMode@CSwtButtonProxy@@QAEXW4TScaleMode@@@Z @ 118 NONAME ; void CSwtButtonProxy::SetIconScaleMode(enum TScaleMode)
	?SetIconSize@CSwtButtonProxy@@QAEHABVTSize@@@Z @ 119 NONAME ; int CSwtButtonProxy::SetIconSize(class TSize const &)
	?SetItems@CSwtComboProxy@@QAEXPAVCDesC16Array@@@Z @ 120 NONAME ; void CSwtComboProxy::SetItems(class CDesC16Array *)
	?SetParameterList@CSwtBrowserSchemeHandler@@QAEXPAVCAiwGenericParamList@@@Z @ 121 NONAME ; void CSwtBrowserSchemeHandler::SetParameterList(class CAiwGenericParamList *)
	?SetPasswordCapability@CSwtLafFacade@@SAXVTCoeInputCapabilities@@@Z @ 122 NONAME ; void CSwtLafFacade::SetPasswordCapability(class TCoeInputCapabilities)
	?SetSelectedIndex@CSwtComboProxy@@QAEXH@Z @ 123 NONAME ; void CSwtComboProxy::SetSelectedIndex(int)
	?SetTextFont@CSwtButtonProxy@@QAEXPBVCFont@@@Z @ 124 NONAME ; void CSwtButtonProxy::SetTextFont(class CFont const *)
	?SetTextHorizontalAlignment@CSwtButtonProxy@@QAEXH@Z @ 125 NONAME ; void CSwtButtonProxy::SetTextHorizontalAlignment(int)
	?SetTextL@CSwtButtonProxy@@QAEXABVTDesC16@@@Z @ 126 NONAME ; void CSwtButtonProxy::SetTextL(class TDesC16 const &)
	?SetTextL@CSwtButtonStateProxy@@QAEXABVTDesC16@@@Z @ 127 NONAME ; void CSwtButtonStateProxy::SetTextL(class TDesC16 const &)
	?SetTextUnderlineStyle@CSwtButtonProxy@@QAEXW4TFontUnderline@@@Z @ 128 NONAME ; void CSwtButtonProxy::SetTextUnderlineStyle(enum TFontUnderline)
	?ShowChoiceListL@CSwtComboProxy@@QAEHXZ @ 129 NONAME ; int CSwtComboProxy::ShowChoiceListL(void)
	?SignalFullScreenTransitionReady@CSwtLafFacade@@SAXXZ @ 130 NONAME ; void CSwtLafFacade::SignalFullScreenTransitionReady(void)
	?SizeChanged@CSwtButtonProxy@@MAEXXZ @ 131 NONAME ; void CSwtButtonProxy::SizeChanged(void)
	?SizeChanged@CSwtComboProxy@@UAEXXZ @ 132 NONAME ; void CSwtComboProxy::SizeChanged(void)
	?State@CSwtButtonProxy@@QBEPAVCSwtButtonStateProxy@@XZ @ 133 NONAME ; class CSwtButtonStateProxy * CSwtButtonProxy::State(void) const
	?Text@CSwtButtonProxy@@QBEABVTDesC16@@XZ @ 134 NONAME ; class TDesC16 const & CSwtButtonProxy::Text(void) const
	?Text@CSwtButtonStateProxy@@QBEABVTDesC16@@XZ @ 135 NONAME ; class TDesC16 const & CSwtButtonStateProxy::Text(void) const
	?TextLineLayout@CSwtLafFacade@@SA?AUTSwtLafFacadeTextLineLayout@1@W4TSwtLafFacadeTextId@1@H@Z @ 136 NONAME ; struct CSwtLafFacade::TSwtLafFacadeTextLineLayout CSwtLafFacade::TextLineLayout(enum CSwtLafFacade::TSwtLafFacadeTextId, int)
	?UnInitFetureManager@CSwtLafFacade@@SAXXZ @ 137 NONAME ; void CSwtLafFacade::UnInitFetureManager(void)
	?VpnDataL@CSwtBrowserVpnApEngine@@QAEXKAAVCSwtBrowserVpnApItem@@@Z @ 138 NONAME ; void CSwtBrowserVpnApEngine::VpnDataL(unsigned long, class CSwtBrowserVpnApItem &)
	?WapApExistsL@CSwtBrowserApUtils@@QAEHK@Z @ 139 NONAME ; int CSwtBrowserApUtils::WapApExistsL(unsigned long)
	?WapIdFromIapIdL@CSwtBrowserApUtils@@QAEKK@Z @ 140 NONAME ; unsigned long CSwtBrowserApUtils::WapIdFromIapIdL(unsigned long)
	?WindowLineLayout@CSwtLafFacade@@SA?AUTSwtLafFacadeWindowLineLayout@1@W4TSwtLafFacadeRectId@1@H@Z @ 141 NONAME ; struct CSwtLafFacade::TSwtLafFacadeWindowLineLayout CSwtLafFacade::WindowLineLayout(enum CSwtLafFacade::TSwtLafFacadeRectId, int)

