EXPORTS
	?jni_lookup@@YAP6AXXZPBD@Z @ 1 NONAME ; void (*)(void) jni_lookup(char const *)
	?SetHiddenL@S60FileSystemUtilities@fileutils@java@@SAXAAVTDesC16@@H@Z @ 2 NONAME ; void java::fileutils::S60FileSystemUtilities::SetHiddenL(class TDesC16 &, int)
	?availableSize@FileUtilities@fileutils@java@@SA_JABV?$basic_string@_WV?$char_traits@_W@std@@V?$allocator@_W@2@@std@@@Z @ 3 NONAME ; long long java::fileutils::FileUtilities::availableSize(class std::basic_string<wchar_t, class std::char_traits<wchar_t>, class std::allocator<wchar_t> > const &)
	?canRead@FileUtilities@fileutils@java@@SA_NABV?$basic_string@_WV?$char_traits@_W@std@@V?$allocator@_W@2@@std@@@Z @ 4 NONAME ; bool java::fileutils::FileUtilities::canRead(class std::basic_string<wchar_t, class std::char_traits<wchar_t>, class std::allocator<wchar_t> > const &)
	?canWrite@FileUtilities@fileutils@java@@SA_NABV?$basic_string@_WV?$char_traits@_W@std@@V?$allocator@_W@2@@std@@@Z @ 5 NONAME ; bool java::fileutils::FileUtilities::canWrite(class std::basic_string<wchar_t, class std::char_traits<wchar_t>, class std::allocator<wchar_t> > const &)
	?exists@FileUtilities@fileutils@java@@SA_NABV?$basic_string@_WV?$char_traits@_W@std@@V?$allocator@_W@2@@std@@@Z @ 6 NONAME ; bool java::fileutils::FileUtilities::exists(class std::basic_string<wchar_t, class std::char_traits<wchar_t>, class std::allocator<wchar_t> > const &)
	?fileSize@FileUtilities@fileutils@java@@SAJABV?$basic_string@_WV?$char_traits@_W@std@@V?$allocator@_W@2@@std@@@Z @ 7 NONAME ; long java::fileutils::FileUtilities::fileSize(class std::basic_string<wchar_t, class std::char_traits<wchar_t>, class std::allocator<wchar_t> > const &)
	?getAccesibleDrives@DriveUtilities@fileutils@java@@SAXAAV?$vector@UdriveInfo@fileutils@java@@V?$allocator@UdriveInfo@fileutils@java@@@std@@@std@@@Z @ 8 NONAME ; void java::fileutils::DriveUtilities::getAccesibleDrives(class std::vector<struct java::fileutils::driveInfo, class std::allocator<struct java::fileutils::driveInfo> > &)
	?getAllDrives@DriveUtilities@fileutils@java@@SAXAAV?$vector@UdriveInfo@fileutils@java@@V?$allocator@UdriveInfo@fileutils@java@@@std@@@std@@@Z @ 9 NONAME ; void java::fileutils::DriveUtilities::getAllDrives(class std::vector<struct java::fileutils::driveInfo, class std::allocator<struct java::fileutils::driveInfo> > &)
	?getDirContents@FileUtilities@fileutils@java@@SA?AV?$basic_string@_WV?$char_traits@_W@std@@V?$allocator@_W@2@@std@@ABV45@@Z @ 10 NONAME ; class std::basic_string<wchar_t, class std::char_traits<wchar_t>, class std::allocator<wchar_t> > java::fileutils::FileUtilities::getDirContents(class std::basic_string<wchar_t, class std::char_traits<wchar_t>, class std::allocator<wchar_t> > const &)
	?getDirContentsList@FileUtilities@fileutils@java@@SA?AV?$list@V?$basic_string@_WV?$char_traits@_W@std@@V?$allocator@_W@2@@std@@V?$allocator@V?$basic_string@_WV?$char_traits@_W@std@@V?$allocator@_W@2@@std@@@2@@std@@ABV?$basic_string@_WV?$char_traits@_W@std@@V?$allocator@_W@2@@5@@Z @ 11 NONAME ; class std::list<class std::basic_string<wchar_t, class std::char_traits<wchar_t>, class std::allocator<wchar_t> >, class std::allocator<class std::basic_string<wchar_t, class std::char_traits<wchar_t>, class std::allocator<wchar_t> > > > java::fileutils::FileUtilities::getDirContentsList(class std::basic_string<wchar_t, class std::char_traits<wchar_t>, class std::allocator<wchar_t> > const &)
	?getDirSize@FileUtilities@fileutils@java@@SAJABV?$basic_string@_WV?$char_traits@_W@std@@V?$allocator@_W@2@@std@@_N@Z @ 12 NONAME ; long java::fileutils::FileUtilities::getDirSize(class std::basic_string<wchar_t, class std::char_traits<wchar_t>, class std::allocator<wchar_t> > const &, bool)
	?getDriveObserverServer@DriveUtilities@fileutils@java@@SAPAVDriveObserverServerInterface@23@XZ @ 13 NONAME ; class java::fileutils::DriveObserverServerInterface * java::fileutils::DriveUtilities::getDriveObserverServer(void)
	?isDirectory@FileUtilities@fileutils@java@@SA_NABV?$basic_string@_WV?$char_traits@_W@std@@V?$allocator@_W@2@@std@@@Z @ 14 NONAME ; bool java::fileutils::FileUtilities::isDirectory(class std::basic_string<wchar_t, class std::char_traits<wchar_t>, class std::allocator<wchar_t> > const &)
	?isFile@FileUtilities@fileutils@java@@SA_NABV?$basic_string@_WV?$char_traits@_W@std@@V?$allocator@_W@2@@std@@@Z @ 15 NONAME ; bool java::fileutils::FileUtilities::isFile(class std::basic_string<wchar_t, class std::char_traits<wchar_t>, class std::allocator<wchar_t> > const &)
	?isHidden@FileUtilities@fileutils@java@@SA_NABV?$basic_string@_WV?$char_traits@_W@std@@V?$allocator@_W@2@@std@@@Z @ 16 NONAME ; bool java::fileutils::FileUtilities::isHidden(class std::basic_string<wchar_t, class std::char_traits<wchar_t>, class std::allocator<wchar_t> > const &)
	?lastModified@FileUtilities@fileutils@java@@SAJABV?$basic_string@_WV?$char_traits@_W@std@@V?$allocator@_W@2@@std@@@Z @ 17 NONAME ; long java::fileutils::FileUtilities::lastModified(class std::basic_string<wchar_t, class std::char_traits<wchar_t>, class std::allocator<wchar_t> > const &)
	?listRoots@FileUtilities@fileutils@java@@SA?AV?$basic_string@_WV?$char_traits@_W@std@@V?$allocator@_W@2@@std@@XZ @ 18 NONAME ; class std::basic_string<wchar_t, class std::char_traits<wchar_t>, class std::allocator<wchar_t> > java::fileutils::FileUtilities::listRoots(void)
	?makeDirAll@FileUtilities@fileutils@java@@SAHABV?$basic_string@_WV?$char_traits@_W@std@@V?$allocator@_W@2@@std@@@Z @ 19 NONAME ; int java::fileutils::FileUtilities::makeDirAll(class std::basic_string<wchar_t, class std::char_traits<wchar_t>, class std::allocator<wchar_t> > const &)
	?registerListener@DriveUtilities@fileutils@java@@SAXPAVDriveListenerInterface@23@ABH@Z @ 20 NONAME ; void java::fileutils::DriveUtilities::registerListener(class java::fileutils::DriveListenerInterface *, int const &)
	?setReadable@FileUtilities@fileutils@java@@SAHABV?$basic_string@_WV?$char_traits@_W@std@@V?$allocator@_W@2@@std@@_N@Z @ 21 NONAME ; int java::fileutils::FileUtilities::setReadable(class std::basic_string<wchar_t, class std::char_traits<wchar_t>, class std::allocator<wchar_t> > const &, bool)
	?setWritable@FileUtilities@fileutils@java@@SAHABV?$basic_string@_WV?$char_traits@_W@std@@V?$allocator@_W@2@@std@@_N@Z @ 22 NONAME ; int java::fileutils::FileUtilities::setWritable(class std::basic_string<wchar_t, class std::char_traits<wchar_t>, class std::allocator<wchar_t> > const &, bool)
	?totalSize@FileUtilities@fileutils@java@@SA_JABV?$basic_string@_WV?$char_traits@_W@std@@V?$allocator@_W@2@@std@@@Z @ 23 NONAME ; long long java::fileutils::FileUtilities::totalSize(class std::basic_string<wchar_t, class std::char_traits<wchar_t>, class std::allocator<wchar_t> > const &)
	?unregisterListener@DriveUtilities@fileutils@java@@SAXPAVDriveListenerInterface@23@ABH@Z @ 24 NONAME ; void java::fileutils::DriveUtilities::unregisterListener(class java::fileutils::DriveListenerInterface *, int const &)
	?usedSize@FileUtilities@fileutils@java@@SA_JABV?$basic_string@_WV?$char_traits@_W@std@@V?$allocator@_W@2@@std@@@Z @ 25 NONAME ; long long java::fileutils::FileUtilities::usedSize(class std::basic_string<wchar_t, class std::char_traits<wchar_t>, class std::allocator<wchar_t> > const &)
	?getDirContents@FileUtilities@fileutils@java@@SA?AV?$basic_string@_WV?$char_traits@_W@std@@V?$allocator@_W@2@@std@@ABV45@_N@Z @ 26 NONAME ; class std::basic_string<wchar_t, class std::char_traits<wchar_t>, class std::allocator<wchar_t> > java::fileutils::FileUtilities::getDirContents(class std::basic_string<wchar_t, class std::char_traits<wchar_t>, class std::allocator<wchar_t> > const &, bool)

