EXPORTS
	_Z10jni_lookupPKc @ 1 NONAME
	_ZN10CMMAPlayer12ControlCountEv @ 2 NONAME
	_ZN10CMMAPlayer15PostStringEventEN15CMMAPlayerEvent10TEventTypeERK7TDesC16 @ 3 NONAME
	_ZN10CMMAPlayer17AddStateListenerLEP23MMMAPlayerStateListener @ 4 NONAME
	_ZN10CMMAPlayer19RemoveStateListenerEP23MMMAPlayerStateListener @ 5 NONAME
	_ZN10CMMAPlayer7ControlEi @ 6 NONAME
	_ZN15CMMAEventSource25SetPlayerInstanceObserverEP26MMMAPlayerInstanceObserver @ 7 NONAME
	_ZN15CMMAEventSource26StaticAddObjectFromHandleLEPS_i @ 8 NONAME
	_ZN15CMMAEventSource7PlayersEv @ 9 NONAME
	_ZN17CMMAMMFPlayerBase10ControllerEv @ 10 NONAME
	_ZN17CMMAVolumeControl15SetVolumeLevelLEii @ 11 NONAME
	_ZN17CMMAVolumeControl9AddLevelLEv @ 12 NONAME
	_ZNK11CMMAControl15PublicClassNameEv @ 13 NONAME
	_ZNK14CMMAMIDIPlayer10MidiClientEv @ 14 NONAME
	_ZTI10CMMAPlayer @ 15 NONAME ; #<TI>#
	_ZTI11CMMAControl @ 16 NONAME ; #<TI>#
	_ZTI14CMMAMIDIPlayer @ 17 NONAME ; #<TI>#
	_ZTI15CMMAEventSource @ 18 NONAME ; #<TI>#
	_ZTI17CMMAMMFPlayerBase @ 19 NONAME ; #<TI>#
	_ZTI17CMMAStreamRequest @ 20 NONAME ; #<TI>#
	_ZTI26CPlaybackCompletedCallback @ 21 NONAME ; #<TI>#
	_ZTIN15CMMAMIDIControl23CChannelVolumeEventWaitE @ 22 NONAME ; #<TI>#
	_ZTIN18CMMAVideoUrlPlayer26CMMAVideoUrlPlayerDelegateE @ 23 NONAME ; #<TI>#
	_ZTIN18CMMAVideoUrlPlayer36CMMAVideoUrlPlayerClipStreamDelegateE @ 24 NONAME ; #<TI>#
	_ZTIN18CMMAVideoUrlPlayer36CMMAVideoUrlPlayerLiveStreamDelegateE @ 25 NONAME ; #<TI>#
	_ZTIN19CMMAStopTimeControl10CStopTimerE @ 26 NONAME ; #<TI>#
	_ZTV10CMMAPlayer @ 27 NONAME ; #<VT>#
	_ZTV11CMMAControl @ 28 NONAME ; #<VT>#
	_ZTV14CMMAMIDIPlayer @ 29 NONAME ; #<VT>#
	_ZTV15CMMAEventSource @ 30 NONAME ; #<VT>#
	_ZTV17CMMAMMFPlayerBase @ 31 NONAME ; #<VT>#
	_ZTV17CMMAStreamRequest @ 32 NONAME ; #<VT>#
	_ZTV26CPlaybackCompletedCallback @ 33 NONAME ; #<VT>#
	_ZTVN15CMMAMIDIControl23CChannelVolumeEventWaitE @ 34 NONAME ; #<VT>#
	_ZTVN18CMMAVideoUrlPlayer26CMMAVideoUrlPlayerDelegateE @ 35 NONAME ; #<VT>#
	_ZTVN18CMMAVideoUrlPlayer36CMMAVideoUrlPlayerClipStreamDelegateE @ 36 NONAME ; #<VT>#
	_ZTVN18CMMAVideoUrlPlayer36CMMAVideoUrlPlayerLiveStreamDelegateE @ 37 NONAME ; #<VT>#
	_ZTVN19CMMAStopTimeControl10CStopTimerE @ 38 NONAME ; #<VT>#
	_ZN17CMMAEMCPlayerBase13StreamControlEv @ 39 NONAME
	_ZN17CMMAEMCPlayerBase9MMFactoryEv @ 40 NONAME
	_ZN11CMMAManager17AddPlayerFactoryLEP17MMMAPlayerFactory @ 41 NONAME
	_ZN18CMMAEMCAudioPlayer10ConstructLEv @ 42 NONAME
	_ZN18CMMAEMCAudioPlayer13PlayCompleteLEi @ 43 NONAME
	_ZN18CMMAEMCAudioPlayer13PrefetchDataLERK6TDesC8 @ 44 NONAME
	_ZN18CMMAEMCAudioPlayer13PrefetchFileLEv @ 45 NONAME
	_ZN18CMMAEMCAudioPlayer14ReadCompletedLEiRK6TDesC8 @ 46 NONAME
	_ZN18CMMAEMCAudioPlayer4TypeEv @ 47 NONAME
	_ZN18CMMAEMCAudioPlayer8RealizeLEv @ 48 NONAME
	_ZN18CMMAEMCAudioPlayer9PrefetchLEv @ 49 NONAME
	_ZN18CMMAEMCAudioPlayerC1EP15CMMAEMCResolver @ 50 NONAME
	_ZN18CMMAEMCAudioPlayerC2EP15CMMAEMCResolver @ 51 NONAME
	_ZN18CMMAEMCAudioPlayerD0Ev @ 52 NONAME
	_ZN18CMMAEMCAudioPlayerD1Ev @ 53 NONAME
	_ZN18CMMAEMCAudioPlayerD2Ev @ 54 NONAME
	_ZN25CMMAEMCAudioVolumeControl11DoGetLevelLEv @ 55 NONAME
	_ZN25CMMAEMCAudioVolumeControl11DoSetLevelLEi @ 56 NONAME
	_ZN25CMMAEMCAudioVolumeControl4NewLER18CMMAEMCAudioPlayer @ 57 NONAME
	_ZN25CMMAEMCAudioVolumeControlC1ER18CMMAEMCAudioPlayer @ 58 NONAME
	_ZN25CMMAEMCAudioVolumeControlC2ER18CMMAEMCAudioPlayer @ 59 NONAME
	_ZTI17CMMAVolumeControl @ 60 NONAME
	_ZTI18CHXMetaDataUtility @ 61 NONAME
	_ZTV17CMMAVolumeControl @ 62 NONAME
	_ZTV18CHXMetaDataUtility @ 63 NONAME
	_ZThn4_N18CMMAEMCAudioPlayer14ReadCompletedLEiRK6TDesC8 @ 64 NONAME
	_ZThn4_N18CMMAEMCAudioPlayerD0Ev @ 65 NONAME
	_ZThn4_N18CMMAEMCAudioPlayerD1Ev @ 66 NONAME
	_ZN10CMMAPlayer15PostObjectEventEN15CMMAPlayerEvent10TEventTypeEP8_jobject @ 67 NONAME
	_ZN10CMMAPlayer11AddControlLEP11CMMAControl @ 68 NONAME
	_ZN10CMMAPlayer12SetLoopCountEi @ 69 NONAME
	_ZN10CMMAPlayer16AddSourceStreamLEP7JNIEnv_P15CMMAEventSourceP8_jobject @ 70 NONAME
	_ZN15CMMAAudioPlayer13PlayCompleteLEi @ 71 NONAME
	_ZN15CMMAAudioPlayer13PrefetchDataLERK6TDesC8 @ 72 NONAME
	_ZN15CMMAAudioPlayer13PrefetchFileLEv @ 73 NONAME
	_ZN15CMMAAudioPlayer21ErrorPlaybackCompleteEi @ 74 NONAME
	_ZN15CMMAAudioPlayer23HandlePlaybackCompleteLEv @ 75 NONAME
	_ZN15CMMAVideoPlayer10SourceSizeEv @ 76 NONAME
	_ZN15CMMAVideoPlayer11SnapshoterLEv @ 77 NONAME
	_ZN15CMMAVideoPlayer13TakeSnapshotLEP14TRequestStatusRK5TSizeRK17CMMAImageSettings @ 78 NONAME
	_ZN15CMMAVideoPlayer14ReadCompletedLEiRK6TDesC8 @ 79 NONAME
	_ZN15CMMAVideoPlayer14SnapshotBitmapEv @ 80 NONAME
	_ZN15CMMAVideoPlayer15SnapshotEncodedEv @ 81 NONAME
	_ZN15CMMAVideoPlayer21NotifyWithStringEventEN15CMMAPlayerEvent10TEventTypeERK7TDesC16 @ 82 NONAME
	_ZN15CMMAVideoPlayer24SetPlayerListenerObjectLEP8_jobjectP7JNIEnv_P15MMMAEventPoster @ 83 NONAME
	_ZN15CMMAVideoPlayer4TypeEv @ 84 NONAME
	_ZN16CMMAVideoControl13SnapshotReadyEv @ 85 NONAME
	_ZN16CMMAVideoControl15HandleSwitchOnLEi @ 86 NONAME
	_ZN16CMMAVideoControl17HandleForegroundLEi @ 87 NONAME
	_ZN16CMMAVideoControl21HandleResourceChangeLEi @ 88 NONAME
	_ZN16CMMAVideoControlC1EP13MMMAGuiPlayer @ 89 NONAME
	_ZN16CMMAVideoControlC2EP13MMMAGuiPlayer @ 90 NONAME
	_ZN16CMMAVideoControlD0Ev @ 91 NONAME
	_ZN16CMMAVideoControlD1Ev @ 92 NONAME
	_ZN16CMMAVideoControlD2Ev @ 93 NONAME
	_ZN17CMMAMMFPlayerBase11GetDurationEPx @ 94 NONAME
	_ZN17CMMAMMFPlayerBase6DoOpenE4TUidRK6TDesC8S0_S3_20TMMFPrioritySettings @ 95 NONAME
	_ZN18CMMAVideoUrlPlayer10ConstructLERK7TDesC16 @ 96 NONAME
	_ZN18CMMAVideoUrlPlayer11DeallocateLEv @ 97 NONAME
	_ZN18CMMAVideoUrlPlayer11HandleEventERK9TMMFEvent @ 98 NONAME
	_ZN18CMMAVideoUrlPlayer12GetMediaTimeEPx @ 99 NONAME
	_ZN18CMMAVideoUrlPlayer5StopLEi @ 100 NONAME
	_ZN18CMMAVideoUrlPlayer6CloseLEv @ 101 NONAME
	_ZN18CMMAVideoUrlPlayer6StartLEv @ 102 NONAME
	_ZN18CMMAVideoUrlPlayer8RealizeLEv @ 103 NONAME
	_ZN18CMMAVideoUrlPlayer9PrefetchLEv @ 104 NONAME
	_ZN18CMMAVideoUrlPlayerC1EP15CMMAMMFResolver @ 105 NONAME
	_ZN18CMMAVideoUrlPlayerC2EP15CMMAMMFResolver @ 106 NONAME
	_ZN18CMMAVideoUrlPlayerD0Ev @ 107 NONAME
	_ZN18CMMAVideoUrlPlayerD1Ev @ 108 NONAME
	_ZN18CMMAVideoUrlPlayerD2Ev @ 109 NONAME
	_ZN20CMMAMMFPlayerFactory13CreatePlayerLEP29CMMFFormatSelectionParametersPK7TDesC16 @ 110 NONAME
	_ZN20CMMAMMFPlayerFactory33PreparePluginSelectionParametersLEP15CMMAMMFResolverP29CMMFFormatSelectionParameters @ 111 NONAME
	_ZN20CMMAMMFPlayerFactoryC2Ev @ 112 NONAME
	_ZN20CMMAMMFPlayerFactoryD0Ev @ 113 NONAME
	_ZN20CMMAMMFPlayerFactoryD1Ev @ 114 NONAME
	_ZN20CMMAMMFPlayerFactoryD2Ev @ 115 NONAME
	_ZN22CMMAAudioVolumeControl4NewLEP15CMMAAudioPlayer @ 116 NONAME
	_ZNK16CMMAVideoControl9ClassNameEv @ 117 NONAME
	_ZTI16CMMAVideoControl @ 118 NONAME
	_ZTI18CMMAVideoUrlPlayer @ 119 NONAME
	_ZTI20CMMAMMFPlayerFactory @ 120 NONAME
	_ZTV16CMMAVideoControl @ 121 NONAME
	_ZTV18CMMAVideoUrlPlayer @ 122 NONAME
	_ZTV20CMMAMMFPlayerFactory @ 123 NONAME
	_ZThn12_N16CMMAVideoControl15HandleSwitchOnLEi @ 124 NONAME
	_ZThn12_N16CMMAVideoControl17HandleForegroundLEi @ 125 NONAME
	_ZThn12_N16CMMAVideoControl21HandleResourceChangeLEi @ 126 NONAME
	_ZThn152_N18CMMAVideoUrlPlayer11HandleEventERK9TMMFEvent @ 127 NONAME
	_ZThn280_N15CMMAAudioPlayer21ErrorPlaybackCompleteEi @ 128 NONAME
	_ZThn280_N15CMMAAudioPlayer23HandlePlaybackCompleteLEv @ 129 NONAME
	_ZThn288_N15CMMAVideoPlayer10SourceSizeEv @ 130 NONAME
	_ZThn288_N15CMMAVideoPlayer11SnapshoterLEv @ 131 NONAME
	_ZThn288_N15CMMAVideoPlayer21NotifyWithStringEventEN15CMMAPlayerEvent10TEventTypeERK7TDesC16 @ 132 NONAME
	_ZThn288_N18CMMAVideoUrlPlayerD0Ev @ 133 NONAME
	_ZThn288_N18CMMAVideoUrlPlayerD1Ev @ 134 NONAME
	_ZThn292_N15CMMAVideoPlayer13TakeSnapshotLEP14TRequestStatusRK5TSizeRK17CMMAImageSettings @ 135 NONAME
	_ZThn292_N15CMMAVideoPlayer14SnapshotBitmapEv @ 136 NONAME
	_ZThn292_N15CMMAVideoPlayer15SnapshotEncodedEv @ 137 NONAME
	_ZThn292_N18CMMAVideoUrlPlayerD0Ev @ 138 NONAME
	_ZThn292_N18CMMAVideoUrlPlayerD1Ev @ 139 NONAME
	_ZThn4_N15CMMAVideoPlayer14ReadCompletedLEiRK6TDesC8 @ 140 NONAME
	_ZThn4_N18CMMAVideoUrlPlayerD0Ev @ 141 NONAME
	_ZThn4_N18CMMAVideoUrlPlayerD1Ev @ 142 NONAME
	_ZThn4_N20CMMAMMFPlayerFactoryD0Ev @ 143 NONAME
	_ZThn4_N20CMMAMMFPlayerFactoryD1Ev @ 144 NONAME
	_ZThn8_N16CMMAVideoControl13SnapshotReadyEv @ 145 NONAME
	_ZThn8_N16CMMAVideoControlD0Ev @ 146 NONAME
	_ZThn8_N16CMMAVideoControlD1Ev @ 147 NONAME
	_ZN15CMMAVideoPlayer11SetDisplayLEP11MMMADisplay @ 148 NONAME
	_ZThn288_N15CMMAVideoPlayer11SetDisplayLEP11MMMADisplay @ 149 NONAME

