EXPORTS
	_ZN4Java13CJavaRegistry4NewLEv @ 1 NONAME
	_ZN4Java13CJavaRegistry5NewLCEv @ 2 NONAME
	_ZN4Java7Manager8Registry13CJavaProperty4NewLElRK7TDesC16 @ 3 NONAME ABSENT
	_ZN4Java7Manager8Registry13CJavaProperty5NewLCElRK7TDesC16 @ 4 NONAME ABSENT
	_ZN4Java7Manager8Registry13CJavaPropertyD0Ev @ 5 NONAME ABSENT
	_ZN4Java7Manager8Registry13CJavaPropertyD1Ev @ 6 NONAME ABSENT
	_ZN4Java7Manager8Registry13CJavaPropertyD2Ev @ 7 NONAME ABSENT
	_ZN4Java7Manager8Registry13CJavaPropertyeqERKS2_ @ 8 NONAME ABSENT
	_ZN4Java7Manager8Registry16JavaRegConverter10StoreTIntLElRP7HBufC16 @ 9 NONAME ABSENT
	_ZN4Java7Manager8Registry16JavaRegConverter11StoreTBoolLEiRP7HBufC16 @ 10 NONAME ABSENT
	_ZN4Java7Manager8Registry16JavaRegConverter14GetTAppVersionERK7TDesC1611TAppVersion @ 11 NONAME ABSENT
	_ZN4Java7Manager8Registry16JavaRegConverter15GetTAppVersionLERK7TDesC16 @ 12 NONAME ABSENT
	_ZN4Java7Manager8Registry16JavaRegConverter17StoreTAppVersionLERK11TAppVersionRP7HBufC16 @ 13 NONAME ABSENT
	_ZN4Java7Manager8Registry16JavaRegConverter21GetCertificateChainsLERK7TDesC16R13RPointerArrayI6HBufC8E @ 14 NONAME ABSENT
	_ZN4Java7Manager8Registry16JavaRegConverter22GetUnicodeDescriptorsLERK7TDesC16R13RPointerArrayI7HBufC16E @ 15 NONAME ABSENT
	_ZN4Java7Manager8Registry16JavaRegConverter23StoreCertificateChainsLERK13RPointerArrayI6HBufC8ERP7HBufC16 @ 16 NONAME ABSENT
	_ZN4Java7Manager8Registry16JavaRegConverter24StoreUnicodeDescriptorsLERK13RPointerArrayI7HBufC16ERPS4_ @ 17 NONAME ABSENT
	_ZN4Java7Manager8Registry16JavaRegConverter7GetTIntERK7TDesC16l @ 18 NONAME ABSENT
	_ZN4Java7Manager8Registry16JavaRegConverter8GetTBoolERK7TDesC16i @ 19 NONAME ABSENT
	_ZN4Java7Manager8Registry16JavaRegConverter8GetTIntLERK7TDesC16 @ 20 NONAME ABSENT
	_ZN4Java7Manager8Registry16JavaRegConverter9GetTBoolLERK7TDesC16 @ 21 NONAME ABSENT
	_ZN4Java7Manager8Registry22CWriteableJavaRegistry10ConstructLEii @ 22 NONAME
	_ZN4Java7Manager8Registry22CWriteableJavaRegistry10ConstructLEx @ 23 NONAME ABSENT
	_ZN4Java7Manager8Registry22CWriteableJavaRegistry4NewLEi @ 24 NONAME
	_ZN4Java7Manager8Registry22CWriteableJavaRegistry4NewLEx @ 25 NONAME ABSENT
	_ZN4Java7Manager8Registry22CWriteableJavaRegistry5NewLCEi @ 26 NONAME
	_ZN4Java7Manager8Registry22CWriteableJavaRegistry5NewLCEx @ 27 NONAME ABSENT
	_ZN4Java7Manager8Registry22CWriteableJavaRegistryC1Ev @ 28 NONAME
	_ZN4Java7Manager8Registry22CWriteableJavaRegistryC2Ev @ 29 NONAME
	_ZN4Java7Manager8Registry22CWriteableJavaRegistryD0Ev @ 30 NONAME
	_ZN4Java7Manager8Registry22CWriteableJavaRegistryD1Ev @ 31 NONAME
	_ZN4Java7Manager8Registry22CWriteableJavaRegistryD2Ev @ 32 NONAME
	_ZN4Java7Manager8Registry26CJavaRegistryBackupSupport4NewLEv @ 33 NONAME ABSENT
	_ZN4Java7Manager8Registry26CJavaRegistryBackupSupport5NewLCEv @ 34 NONAME ABSENT
	_ZN4Java7Manager8Registry26CJavaRegistryBackupSupportD0Ev @ 35 NONAME ABSENT
	_ZN4Java7Manager8Registry26CJavaRegistryBackupSupportD1Ev @ 36 NONAME ABSENT
	_ZN4Java7Manager8Registry26CJavaRegistryBackupSupportD2Ev @ 37 NONAME ABSENT
	_ZN4Java7Manager8Registry27CWriteableJavaRegistryEntry10ConstructLENS_22TJavaRegistryEntryTypeE @ 38 NONAME
	_ZN4Java7Manager8Registry27CWriteableJavaRegistryEntry12SetPropertyLEPNS1_13CJavaPropertyE @ 39 NONAME ABSENT
	_ZN4Java7Manager8Registry27CWriteableJavaRegistryEntry12SetPropertyLElRK7TDesC16 @ 40 NONAME ABSENT
	_ZN4Java7Manager8Registry27CWriteableJavaRegistryEntry14DeletePropertyEi @ 41 NONAME ABSENT
	_ZN4Java7Manager8Registry27CWriteableJavaRegistryEntry19SetBooleanPropertyLEli @ 42 NONAME ABSENT
	_ZN4Java7Manager8Registry27CWriteableJavaRegistryEntry19SetIntegerPropertyLEll @ 43 NONAME ABSENT
	_ZN4Java7Manager8Registry27CWriteableJavaRegistryEntry20AddCertificateChainLERK6TDesC8 @ 44 NONAME ABSENT
	_ZN4Java7Manager8Registry27CWriteableJavaRegistryEntry22SetDescriptorPropertyLElRK7TDesC16 @ 45 NONAME ABSENT
	_ZN4Java7Manager8Registry27CWriteableJavaRegistryEntry8SetNameLERK7TDesC16 @ 46 NONAME ABSENT
	_ZN4Java7Manager8Registry27CWriteableJavaRegistryEntry8SetTypeLENS_22TJavaRegistryEntryTypeE @ 47 NONAME ABSENT
	_ZN4Java7Manager8Registry27CWriteableJavaRegistryEntry9SetDriveLERK12TDriveNumber @ 48 NONAME ABSENT
	_ZN4Java7Manager8Registry27CWriteableJavaRegistryEntryC1ERK4TUid @ 49 NONAME ABSENT
	_ZN4Java7Manager8Registry27CWriteableJavaRegistryEntryC2ERK4TUid @ 50 NONAME ABSENT
	_ZN4Java7Manager8Registry27CWriteableJavaRegistryEntryD0Ev @ 51 NONAME
	_ZN4Java7Manager8Registry27CWriteableJavaRegistryEntryD1Ev @ 52 NONAME
	_ZN4Java7Manager8Registry27CWriteableJavaRegistryEntryD2Ev @ 53 NONAME
	_ZN4Java7Manager8Registry34CWriteableJavaRegistryPackageEntry10SetVendorLERK7TDesC16 @ 54 NONAME ABSENT
	_ZN4Java7Manager8Registry34CWriteableJavaRegistryPackageEntry11SetVersionLERK11TAppVersion @ 55 NONAME ABSENT
	_ZN4Java7Manager8Registry34CWriteableJavaRegistryPackageEntry12SetPropertyLEPNS1_13CJavaPropertyE @ 56 NONAME ABSENT
	_ZN4Java7Manager8Registry34CWriteableJavaRegistryPackageEntry17AddEmbeddedEntryLERK4TUid @ 57 NONAME ABSENT
	_ZN4Java7Manager8Registry34CWriteableJavaRegistryPackageEntry17SetInstallPluginLERK6TDesC8 @ 58 NONAME ABSENT
	_ZN4Java7Manager8Registry34CWriteableJavaRegistryPackageEntry17SetUninstallableLEi @ 59 NONAME ABSENT
	_ZN4Java7Manager8Registry34CWriteableJavaRegistryPackageEntry18SetDownloadPluginLERK6TDesC8 @ 60 NONAME ABSENT
	_ZN4Java7Manager8Registry34CWriteableJavaRegistryPackageEntry20RemoveEmbeddedEntryLERK4TUid @ 61 NONAME ABSENT
	_ZN4Java7Manager8Registry34CWriteableJavaRegistryPackageEntry4NewLERK4TUid @ 62 NONAME ABSENT
	_ZN4Java7Manager8Registry34CWriteableJavaRegistryPackageEntry5NewLCERK4TUid @ 63 NONAME ABSENT
	_ZN4Java7Manager8Registry34CWriteableJavaRegistryPackageEntry8SetSizeLEi @ 64 NONAME ABSENT
	_ZN4Java7Manager8Registry34CWriteableJavaRegistryPackageEntryC1ERK4TUid @ 65 NONAME ABSENT
	_ZN4Java7Manager8Registry34CWriteableJavaRegistryPackageEntryC2ERK4TUid @ 66 NONAME ABSENT
	_ZN4Java7Manager8Registry34CWriteableJavaRegistryPackageEntryD0Ev @ 67 NONAME
	_ZN4Java7Manager8Registry34CWriteableJavaRegistryPackageEntryD1Ev @ 68 NONAME
	_ZN4Java7Manager8Registry34CWriteableJavaRegistryPackageEntryD2Ev @ 69 NONAME
	_ZN4Java7Manager8Registry38CWriteableJavaRegistryApplicationEntry11SetVisibleLEi @ 70 NONAME ABSENT
	_ZN4Java7Manager8Registry38CWriteableJavaRegistryApplicationEntry12SetResidentLEi @ 71 NONAME ABSENT
	_ZN4Java7Manager8Registry38CWriteableJavaRegistryApplicationEntry13SetGroupNameLERK7TDesC16 @ 72 NONAME ABSENT
	_ZN4Java7Manager8Registry38CWriteableJavaRegistryApplicationEntry13SetStartableLEi @ 73 NONAME ABSENT
	_ZN4Java7Manager8Registry38CWriteableJavaRegistryApplicationEntry21SetInstallPackageUidLERK4TUid @ 74 NONAME ABSENT
	_ZN4Java7Manager8Registry38CWriteableJavaRegistryApplicationEntry4NewLERK4TUid @ 75 NONAME ABSENT
	_ZN4Java7Manager8Registry38CWriteableJavaRegistryApplicationEntry5NewLCERK4TUid @ 76 NONAME ABSENT
	_ZN4Java7Manager8Registry38CWriteableJavaRegistryApplicationEntryC1ERK4TUid @ 77 NONAME ABSENT
	_ZN4Java7Manager8Registry38CWriteableJavaRegistryApplicationEntryC2ERK4TUid @ 78 NONAME ABSENT
	_ZNK4Java13CJavaRegistry14RegistryEntryLERK4TUid @ 79 NONAME
	_ZNK4Java13CJavaRegistry20RegistryEntryExistsLERK4TUid @ 80 NONAME
	_ZNK4Java13CJavaRegistry21GetRegistryEntryUidsLENS_22TJavaRegistryEntryTypeER6RArrayI4TUidE @ 81 NONAME
	_ZNK4Java13CJavaRegistry21GetRegistryEntryUidsLER6RArrayI4TUidE @ 82 NONAME
	_ZNK4Java18CJavaRegistryEntry16CertificateChainEi @ 83 NONAME
	_ZNK4Java18CJavaRegistryEntry25NumberOfCertificateChainsEv @ 84 NONAME
	_ZNK4Java18CJavaRegistryEntry3UidEv @ 85 NONAME
	_ZNK4Java18CJavaRegistryEntry4NameEv @ 86 NONAME
	_ZNK4Java18CJavaRegistryEntry4TypeEv @ 87 NONAME
	_ZNK4Java18CJavaRegistryEntry5DriveEv @ 88 NONAME
	_ZNK4Java25CJavaRegistryPackageEntry15IsUninstallableEv @ 89 NONAME
	_ZNK4Java25CJavaRegistryPackageEntry18GetEmbeddedEntriesER6RArrayI4TUidE @ 90 NONAME
	_ZNK4Java25CJavaRegistryPackageEntry19EmbeddedEntryByUidLERK4TUid @ 91 NONAME
	_ZNK4Java25CJavaRegistryPackageEntry22EmbeddedEntryByNumberLEi @ 92 NONAME
	_ZNK4Java25CJavaRegistryPackageEntry23NumberOfEmbeddedEntriesEv @ 93 NONAME
	_ZNK4Java25CJavaRegistryPackageEntry6VendorEv @ 94 NONAME
	_ZNK4Java25CJavaRegistryPackageEntry7VersionEv @ 95 NONAME
	_ZNK4Java29CJavaRegistryApplicationEntry10IsResidentEv @ 96 NONAME
	_ZNK4Java29CJavaRegistryApplicationEntry11IsStartableEv @ 97 NONAME
	_ZNK4Java29CJavaRegistryApplicationEntry13PackageEntryLEv @ 98 NONAME
	_ZNK4Java29CJavaRegistryApplicationEntry9GroupNameEv @ 99 NONAME
	_ZNK4Java29CJavaRegistryApplicationEntry9IsVisibleEv @ 100 NONAME
	_ZNK4Java7Manager8Registry13CJavaProperty2IdEv @ 101 NONAME ABSENT
	_ZNK4Java7Manager8Registry13CJavaProperty5ValueEv @ 102 NONAME ABSENT
	_ZNK4Java7Manager8Registry22CWriteableJavaRegistry13GenerateUidsLER6RArrayI4TUidEi @ 103 NONAME ABSENT
	_ZNK4Java7Manager8Registry22CWriteableJavaRegistry14RegistryEntryLERK4TUid @ 104 NONAME ABSENT
	_ZNK4Java7Manager8Registry22CWriteableJavaRegistry17SetRegistryEntryLERKNS1_27CWriteableJavaRegistryEntryE @ 105 NONAME ABSENT
	_ZNK4Java7Manager8Registry22CWriteableJavaRegistry20RegistryEntryExistsLERK4TUid @ 106 NONAME
	_ZNK4Java7Manager8Registry22CWriteableJavaRegistry20RemoveRegistryEntryLERK4TUidi @ 107 NONAME ABSENT
	_ZNK4Java7Manager8Registry22CWriteableJavaRegistry21GetRegistryEntryUidsLENS_22TJavaRegistryEntryTypeER6RArrayI4TUidE @ 108 NONAME ABSENT
	_ZNK4Java7Manager8Registry22CWriteableJavaRegistry21GetRegistryEntryUidsLER6RArrayI4TUidE @ 109 NONAME
	_ZNK4Java7Manager8Registry22CWriteableJavaRegistry21GetRegistryEntryUidsLERK13RPointerArrayINS1_13CJavaPropertyEER6RArrayI4TUidE @ 110 NONAME ABSENT
	_ZNK4Java7Manager8Registry22CWriteableJavaRegistry25DecideEntryTypeAndCreateLERK4TUidPNS1_18CJavaPropertyArrayE @ 111 NONAME ABSENT
	_ZNK4Java7Manager8Registry26CJavaRegistryBackupSupport14ChangeBURStateERKNS1_12TBackupStateE @ 112 NONAME ABSENT
	_ZNK4Java7Manager8Registry26CJavaRegistryBackupSupport21EntriesExistForDriveLERK12TDriveNumber @ 113 NONAME ABSENT
	_ZNK4Java7Manager8Registry27CWriteableJavaRegistryEntry15BooleanPropertyEli @ 114 NONAME ABSENT
	_ZNK4Java7Manager8Registry27CWriteableJavaRegistryEntry15IntegerPropertyEll @ 115 NONAME ABSENT
	_ZNK4Java7Manager8Registry27CWriteableJavaRegistryEntry16CertificateChainEi @ 116 NONAME
	_ZNK4Java7Manager8Registry27CWriteableJavaRegistryEntry16GetPropertyIndexEl @ 117 NONAME ABSENT
	_ZNK4Java7Manager8Registry27CWriteableJavaRegistryEntry25NumberOfCertificateChainsEv @ 118 NONAME
	_ZNK4Java7Manager8Registry27CWriteableJavaRegistryEntry3UidEv @ 119 NONAME
	_ZNK4Java7Manager8Registry27CWriteableJavaRegistryEntry4NameEv @ 120 NONAME
	_ZNK4Java7Manager8Registry27CWriteableJavaRegistryEntry4TypeEv @ 121 NONAME
	_ZNK4Java7Manager8Registry27CWriteableJavaRegistryEntry5DriveEv @ 122 NONAME
	_ZNK4Java7Manager8Registry27CWriteableJavaRegistryEntry8PropertyEl @ 123 NONAME ABSENT
	_ZNK4Java7Manager8Registry34CWriteableJavaRegistryPackageEntry13InstallPluginEv @ 124 NONAME ABSENT
	_ZNK4Java7Manager8Registry34CWriteableJavaRegistryPackageEntry14DownloadPluginEv @ 125 NONAME ABSENT
	_ZNK4Java7Manager8Registry34CWriteableJavaRegistryPackageEntry15IsUninstallableEv @ 126 NONAME
	_ZNK4Java7Manager8Registry34CWriteableJavaRegistryPackageEntry18GetEmbeddedEntriesER6RArrayI4TUidE @ 127 NONAME
	_ZNK4Java7Manager8Registry34CWriteableJavaRegistryPackageEntry19EmbeddedEntryByUidLERK4TUid @ 128 NONAME
	_ZNK4Java7Manager8Registry34CWriteableJavaRegistryPackageEntry22EmbeddedEntryByNumberLEi @ 129 NONAME
	_ZNK4Java7Manager8Registry34CWriteableJavaRegistryPackageEntry23NumberOfEmbeddedEntriesEv @ 130 NONAME
	_ZNK4Java7Manager8Registry34CWriteableJavaRegistryPackageEntry4SizeEv @ 131 NONAME ABSENT
	_ZNK4Java7Manager8Registry34CWriteableJavaRegistryPackageEntry6VendorEv @ 132 NONAME
	_ZNK4Java7Manager8Registry34CWriteableJavaRegistryPackageEntry7VersionEv @ 133 NONAME
	_ZNK4Java7Manager8Registry38CWriteableJavaRegistryApplicationEntry10IsResidentEv @ 134 NONAME
	_ZNK4Java7Manager8Registry38CWriteableJavaRegistryApplicationEntry11IsStartableEv @ 135 NONAME
	_ZNK4Java7Manager8Registry38CWriteableJavaRegistryApplicationEntry13PackageEntryLEv @ 136 NONAME
	_ZNK4Java7Manager8Registry38CWriteableJavaRegistryApplicationEntry17InstallPackageUidEv @ 137 NONAME ABSENT
	_ZNK4Java7Manager8Registry38CWriteableJavaRegistryApplicationEntry9GroupNameEv @ 138 NONAME ABSENT
	_ZNK4Java7Manager8Registry38CWriteableJavaRegistryApplicationEntry9IsVisibleEv @ 139 NONAME
	_ZTIN4Java13CJavaRegistryE @ 140 NONAME ; #<TI>#
	_ZTIN4Java18CJavaRegistryEntryE @ 141 NONAME ; #<TI>#
	_ZTIN4Java7Manager8Registry13CJavaPropertyE @ 142 NONAME ABSENT ; #<TI>#
	_ZTIN4Java7Manager8Registry18CJavaPropertyArrayE @ 143 NONAME ABSENT ; #<TI>#
	_ZTIN4Java7Manager8Registry22CWriteableJavaRegistryE @ 144 NONAME ; #<TI>#
	_ZTIN4Java7Manager8Registry26CJavaRegistryBackupSupportE @ 145 NONAME ABSENT ; #<TI>#
	_ZTIN4Java7Manager8Registry27CWriteableJavaRegistryEntryE @ 146 NONAME ; #<TI>#
	_ZTIN4Java7Manager8Registry34CWriteableJavaRegistryPackageEntryE @ 147 NONAME ; #<TI>#
	_ZTVN4Java13CJavaRegistryE @ 148 NONAME ; #<VT>#
	_ZTVN4Java18CJavaRegistryEntryE @ 149 NONAME ; #<VT>#
	_ZTVN4Java7Manager8Registry13CJavaPropertyE @ 150 NONAME ABSENT ; #<VT>#
	_ZTVN4Java7Manager8Registry18CJavaPropertyArrayE @ 151 NONAME ABSENT ; #<VT>#
	_ZTVN4Java7Manager8Registry22CWriteableJavaRegistryE @ 152 NONAME ; #<VT>#
	_ZTVN4Java7Manager8Registry26CJavaRegistryBackupSupportE @ 153 NONAME ABSENT ; #<VT>#
	_ZTVN4Java7Manager8Registry27CWriteableJavaRegistryEntryE @ 154 NONAME ; #<VT>#
	_ZTVN4Java7Manager8Registry34CWriteableJavaRegistryPackageEntryE @ 155 NONAME ; #<VT>#
	_ZN4Java7Manager8Registry38CWriteableJavaRegistryApplicationEntry12SetPropertyLEPNS1_13CJavaPropertyE @ 156 NONAME ABSENT
	_ZTIN4Java7Manager8Registry38CWriteableJavaRegistryApplicationEntryE @ 157 NONAME ; #<TI>#
	_ZTVN4Java7Manager8Registry38CWriteableJavaRegistryApplicationEntryE @ 158 NONAME ; #<VT>#
	_ZN4Java7Manager8Registry27CWriteableJavaRegistryEntry16SetDrmContentIdLERK7TDesC16 @ 159 NONAME ABSENT
	_ZNK4Java18CJavaRegistryEntry12DrmContentIdEv @ 160 NONAME
	_ZNK4Java7Manager8Registry27CWriteableJavaRegistryEntry12DrmContentIdEv @ 161 NONAME
	_ZN4Java7Manager8Registry14CJavaAttribute4NewLERK7TDesC16S5_i @ 162 NONAME ABSENT
	_ZN4Java7Manager8Registry14CJavaAttribute5NewLCERK7TDesC16S5_i @ 163 NONAME ABSENT
	_ZN4Java7Manager8Registry15CJavaAttributes13AddAttributeLEPNS1_14MJavaAttributeE @ 164 NONAME ABSENT
	_ZN4Java7Manager8Registry15CJavaAttributes13AddAttributeLERK7TDesC16S5_i @ 165 NONAME ABSENT
	_ZN4Java7Manager8Registry15CJavaAttributes16DeleteAttributesEv @ 166 NONAME ABSENT
	_ZN4Java7Manager8Registry15CJavaAttributes4NewLEP6TDesC8 @ 167 NONAME ABSENT
	_ZN4Java7Manager8Registry15CJavaAttributes4NewLEv @ 168 NONAME ABSENT
	_ZN4Java7Manager8Registry15CJavaAttributes5NewLCEP6TDesC8 @ 169 NONAME ABSENT
	_ZN4Java7Manager8Registry15CJavaAttributes5NewLCEv @ 170 NONAME ABSENT
	_ZN4Java7Manager8Registry15CJavaAttributesD0Ev @ 171 NONAME ABSENT
	_ZN4Java7Manager8Registry15CJavaAttributesD1Ev @ 172 NONAME ABSENT
	_ZN4Java7Manager8Registry15CJavaAttributesD2Ev @ 173 NONAME ABSENT
	_ZNK4Java7Manager8Registry27CWriteableJavaRegistryEntry10AttributeLERK7TDesC16 @ 174 NONAME
	_ZNK4Java7Manager8Registry27CWriteableJavaRegistryEntry11AttributesLEv @ 175 NONAME
	_ZN4Java7Manager8Registry27CWriteableJavaRegistryEntry20SerializeAttributesLEv @ 176 NONAME ABSENT
	_ZNK4Java7Manager8Registry34CWriteableJavaRegistryPackageEntry10AttributeLERK7TDesC16 @ 177 NONAME
	_ZNK4Java7Manager8Registry34CWriteableJavaRegistryPackageEntry11AttributesLEv @ 178 NONAME
	_ZN4Java7Manager8Registry34CWriteableJavaRegistryPackageEntry13SetAttributeLERK7TDesC16S5_i @ 179 NONAME ABSENT
	_ZN4Java7Manager8Registry34CWriteableJavaRegistryPackageEntry20SerializeAttributesLEv @ 180 NONAME ABSENT
	_ZNK4Java7Manager8Registry38CWriteableJavaRegistryApplicationEntry10AttributeLERK7TDesC16 @ 181 NONAME
	_ZNK4Java7Manager8Registry38CWriteableJavaRegistryApplicationEntry11AttributesLEv @ 182 NONAME
	_ZN4Java7Manager8Registry38CWriteableJavaRegistryApplicationEntryD0Ev @ 183 NONAME
	_ZN4Java7Manager8Registry38CWriteableJavaRegistryApplicationEntryD1Ev @ 184 NONAME
	_ZN4Java7Manager8Registry38CWriteableJavaRegistryApplicationEntryD2Ev @ 185 NONAME
	_ZNK4Java18CJavaRegistryEntry10AttributeLERK7TDesC16 @ 186 NONAME
	_ZNK4Java18CJavaRegistryEntry11AttributesLEv @ 187 NONAME
	_ZNK4Java7Manager8Registry15CJavaAttributes10AttributesEv @ 188 NONAME ABSENT
	_ZNK4Java7Manager8Registry15CJavaAttributes21SerializedAttributesLEv @ 189 NONAME ABSENT
	_ZNK4Java7Manager8Registry15CJavaAttributes4SizeEv @ 190 NONAME ABSENT
	_ZNK4Java7Manager8Registry15CJavaAttributes5CountEv @ 191 NONAME ABSENT
	_ZNK4Java7Manager8Registry15CJavaAttributes9AttributeERK7TDesC16 @ 192 NONAME ABSENT
	_ZNK4Java7Manager8Registry22CWriteableJavaRegistry17SetRegistryEntryLERNS1_27CWriteableJavaRegistryEntryE @ 193 NONAME ABSENT
	_ZTIN4Java7Manager8Registry14CJavaAttributeE @ 194 NONAME ABSENT ; #<TI>#
	_ZTIN4Java7Manager8Registry15CJavaAttributesE @ 195 NONAME ABSENT ; #<TI>#
	_ZTVN4Java7Manager8Registry14CJavaAttributeE @ 196 NONAME ABSENT ; #<VT>#
	_ZTVN4Java7Manager8Registry15CJavaAttributesE @ 197 NONAME ABSENT ; #<VT>#
	_ZN4Java14CJavaAttribute4NewLERK7TDesC16S3_i @ 198 NONAME
	_ZN4Java14CJavaAttribute5NewLCERK7TDesC16S3_i @ 199 NONAME
	_ZN4Java7Manager8Registry15CJavaAttributes13AddAttributeLEPNS_14MJavaAttributeE @ 200 NONAME ABSENT
	_ZTIN4Java14CJavaAttributeE @ 201 NONAME ; #<TI>#
	_ZTVN4Java14CJavaAttributeE @ 202 NONAME ; #<VT>#
	_ZNK4Java7Manager8Registry22CWriteableJavaRegistry14RegistryEntryLERK4TUidi @ 203 NONAME
	_ZNK4Java7Manager8Registry22CWriteableJavaRegistry20RemoveRegistryEntryLERK4TUidii @ 204 NONAME ABSENT
	_ZNK4Java7Manager8Registry22CWriteableJavaRegistry21GetRegistryEntryUidsLENS_22TJavaRegistryEntryTypeER6RArrayI4TUidEi @ 205 NONAME
	_ZNK4Java7Manager8Registry22CWriteableJavaRegistry21GetRegistryEntryUidsLERK13RPointerArrayINS1_13CJavaPropertyEER6RArrayI4TUidEi @ 206 NONAME ABSENT
	_ZNK4Java25CJavaRegistryPackageEntry17UsedUserDiskSpaceEv @ 207 NONAME
	_ZNK4Java7Manager8Registry34CWriteableJavaRegistryPackageEntry17UsedUserDiskSpaceEv @ 208 NONAME
	_ZNK4Java7Manager8Registry34CWriteableJavaRegistryPackageEntry14IsPreinstalledEv @ 209 NONAME
	_ZNK4Java25CJavaRegistryPackageEntry14IsPreinstalledEv @ 210 NONAME
	_ZN4Java14CJavaAttributeD0Ev @ 211 NONAME
	_ZN4Java14CJavaAttributeD1Ev @ 212 NONAME
	_ZN4Java14CJavaAttributeD2Ev @ 213 NONAME
	_ZN4Java18CJavaRegistryEntryD0Ev @ 214 NONAME
	_ZN4Java18CJavaRegistryEntryD1Ev @ 215 NONAME
	_ZN4Java18CJavaRegistryEntryD2Ev @ 216 NONAME
	_ZThn4_N4Java14CJavaAttributeD0Ev @ 217 NONAME
	_ZThn4_N4Java14CJavaAttributeD1Ev @ 218 NONAME

