EXPORTS
	??0CLcdGraphicsDriverImpl@@QAE@ABUTDriverInfo@CLcdGraphicsDriver@@PBUTImageRenderer@@HPBUTColorMap@@HPBUTCollisionDetector@@HPBUTDrawFunctions@@H@Z @ 1 NONAME ; CLcdGraphicsDriverImpl::CLcdGraphicsDriverImpl(struct CLcdGraphicsDriver::TDriverInfo const &, struct TImageRenderer const *, int, struct TColorMap const *, int, struct TCollisionDetector const *, int, struct TDrawFunctions const *, int)
	??1CLcdGraphicsDriverImpl@@UAE@XZ @ 2 NONAME ; CLcdGraphicsDriverImpl::~CLcdGraphicsDriverImpl(void)
	??8TLcdTransform@@QBEHABV0@@Z @ 3 NONAME ; int TLcdTransform::operator==(class TLcdTransform const &) const
	??DTLcdTransform@@QBE?AV0@ABV0@@Z @ 4 NONAME ; class TLcdTransform TLcdTransform::operator*(class TLcdTransform const &) const
	??RTLcdTransform@@QBE?AVTPoint@@ABV1@@Z @ 5 NONAME ; class TPoint TLcdTransform::operator()(class TPoint const &) const
	?CalcTransform@@YA?AVTLcdTransform@@ABVTRect@@0W4TTransformType@@@Z @ 6 NONAME ; class TLcdTransform CalcTransform(class TRect const &, class TRect const &, enum TTransformType)
	?CheckBounds@@YAHABVTSize@@0ABVTRect@@ABVTLcdTransform@@@Z @ 7 NONAME ; int CheckBounds(class TSize const &, class TSize const &, class TRect const &, class TLcdTransform const &)
	?CheckTransform@@YAHABVTRect@@0VTLcdTransform@@@Z @ 8 NONAME ; int CheckTransform(class TRect const &, class TRect const &, class TLcdTransform)
	?ClipRects@@YAXAAVTRect@@ABV1@01@Z @ 9 NONAME ; void ClipRects(class TRect &, class TRect const &, class TRect &, class TRect const &)
	?ClipTransformRect@@YAXAAVTRect@@0ABV1@1AAVTLcdTransform@@@Z @ 10 NONAME ; void ClipTransformRect(class TRect &, class TRect &, class TRect const &, class TRect const &, class TLcdTransform &)
	?CopyRegion@CLcdGraphicsDriverImpl@@UAEHPBVTAcceleratedBitmapInfo@@0W4TTransparency@@ABVTRect@@0012W4TTransformType@@2@Z @ 11 NONAME ; int CLcdGraphicsDriverImpl::CopyRegion(class TAcceleratedBitmapInfo const *, class TAcceleratedBitmapInfo const *, enum TTransparency, class TRect const &, class TAcceleratedBitmapInfo const *, class TAcceleratedBitmapInfo const *, enum TTransparency, class TRect const &, enum TTransformType, class TRect const &)
	?CreateDeviceL@CLcdGraphicsDriverImpl@@UAEPAVCLcdGraphicsDevice@@ABUTImageType@@@Z @ 12 NONAME ; class CLcdGraphicsDevice * CLcdGraphicsDriverImpl::CreateDeviceL(struct TImageType const &)
	?DetectCollision@CLcdGraphicsDriverImpl@@UAEHPBVTAcceleratedBitmapInfo@@W4TTransparency@@ABVTSize@@ABVTRect@@HABVTPoint@@0123H4@Z @ 13 NONAME ; int CLcdGraphicsDriverImpl::DetectCollision(class TAcceleratedBitmapInfo const *, enum TTransparency, class TSize const &, class TRect const &, int, class TPoint const &, class TAcceleratedBitmapInfo const *, enum TTransparency, class TSize const &, class TRect const &, int, class TPoint const &)
	?DrawRegion@CLcdGraphicsDriverImpl@@UAEHPBVTAcceleratedBitmapInfo@@ABVTRect@@00W4TTransparency@@1W4TTransformType@@1@Z @ 14 NONAME ; int CLcdGraphicsDriverImpl::DrawRegion(class TAcceleratedBitmapInfo const *, class TRect const &, class TAcceleratedBitmapInfo const *, class TAcceleratedBitmapInfo const *, enum TTransparency, class TRect const &, enum TTransformType, class TRect const &)
	?GetCollisionDetector@CLcdGraphicsDriverImpl@@IBEPBUTCollisionDetector@@W4TDisplayMode@@W4TTransparency@@01@Z @ 15 NONAME ; struct TCollisionDetector const * CLcdGraphicsDriverImpl::GetCollisionDetector(enum TDisplayMode, enum TTransparency, enum TDisplayMode, enum TTransparency) const
	?GetColorMap@CLcdGraphicsDriverImpl@@IAEPBUTColorMap@@W4TDisplayMode@@@Z @ 16 NONAME ; struct TColorMap const * CLcdGraphicsDriverImpl::GetColorMap(enum TDisplayMode)
	?GetDrawFunctions@CLcdGraphicsDriverImpl@@IBEPBUTDrawFunctions@@W4TDisplayMode@@@Z @ 17 NONAME ; struct TDrawFunctions const * CLcdGraphicsDriverImpl::GetDrawFunctions(enum TDisplayMode) const
	?GetDriverInfo@CLcdGraphicsDriverImpl@@UBEXAAUTDriverInfo@CLcdGraphicsDriver@@@Z @ 18 NONAME ; void CLcdGraphicsDriverImpl::GetDriverInfo(struct CLcdGraphicsDriver::TDriverInfo &) const
	?GetRenderer@CLcdGraphicsDriverImpl@@IBEPBUTImageRenderer@@ABUTImageType@@0W4TTransformType@@W4TCompositRule@@@Z @ 19 NONAME ; struct TImageRenderer const * CLcdGraphicsDriverImpl::GetRenderer(struct TImageType const &, struct TImageType const &, enum TTransformType, enum TCompositRule) const
	?Identity@@YA?AVTLcdTransform@@XZ @ 20 NONAME ; class TLcdTransform Identity(void)
	?Inverse@TLcdTransform@@QBE?AV1@XZ @ 21 NONAME ; class TLcdTransform TLcdTransform::Inverse(void) const
	?NewL@CLcdGraphicsDriverImpl@@SAPAV1@W4TDisplayMode@@@Z @ 22 NONAME ; class CLcdGraphicsDriverImpl * CLcdGraphicsDriverImpl::NewL(enum TDisplayMode)
	?ReflectDiag@@YA?AVTLcdTransform@@XZ @ 23 NONAME ; class TLcdTransform ReflectDiag(void)
	?ReflectHorz@@YA?AVTLcdTransform@@ABVTSize@@@Z @ 24 NONAME ; class TLcdTransform ReflectHorz(class TSize const &)
	?ReflectVert@@YA?AVTLcdTransform@@ABVTSize@@@Z @ 25 NONAME ; class TLcdTransform ReflectVert(class TSize const &)
	?Transform@@YA?AVTLcdTransform@@W4TTransformType@@ABVTSize@@@Z @ 26 NONAME ; class TLcdTransform Transform(enum TTransformType, class TSize const &)
	?Translate@@YA?AVTLcdTransform@@ABVTPoint@@@Z @ 27 NONAME ; class TLcdTransform Translate(class TPoint const &)

