EXPORTS
	_ZN13CSwtLafFacade11GetConstantENS_23TSwtLafFacadeConstantIdE @ 1 NONAME
	_ZN13CSwtLafFacade11GetLanguageEv @ 2 NONAME
	_ZN13CSwtLafFacade13GetLayoutRectENS_19TSwtLafFacadeRectIdERK5TRectiii @ 3 NONAME
	_ZN13CSwtLafFacade13GetLayoutTextENS_19TSwtLafFacadeTextIdERK5TRecti @ 4 NONAME
	_ZN13CSwtLafFacade14TextLineLayoutENS_19TSwtLafFacadeTextIdEi @ 5 NONAME
	_ZN13CSwtLafFacade15GetFlipWatchUidEv @ 6 NONAME
	_ZN13CSwtLafFacade15GetUintConstantENS_23TSwtLafFacadeConstantIdE @ 7 NONAME
	_ZN13CSwtLafFacade16FeatureSupportedEi @ 8 NONAME
	_ZN13CSwtLafFacade16WindowLineLayoutENS_19TSwtLafFacadeRectIdEi @ 9 NONAME
	_ZN13CSwtLafFacade18GetFlipWatchStatusEv @ 10 NONAME
	_ZN13CSwtLafFacade19InitFeatureManagerLEv @ 11 NONAME
	_ZN13CSwtLafFacade19UnInitFetureManagerEv @ 12 NONAME
	_ZN13CSwtLafFacade21SetPasswordCapabilityE21TCoeInputCapabilities @ 13 NONAME
	_ZN13CSwtLafFacade22IsLandscapeOrientationEv @ 14 NONAME
	_ZN13CSwtLafFacade23GetChoiceListPaneLayoutEv @ 15 NONAME
	_ZN13CSwtLafFacade23GetComposeAndLayoutRectENS_23TSwtComposeLayoutRectIdERK5TRectiii @ 16 NONAME
	_ZN13CSwtLafFacade25GetChoiceListPaneT1LayoutEv @ 17 NONAME
	_ZN13CSwtLafFacade29GetFlipWatchEnumerationStatusEv @ 18 NONAME
	_ZN13CSwtLafFacade31SignalFullScreenTransitionReadyEv @ 19 NONAME
	_ZN13CSwtLafFacade8JavaAPNLEm @ 20 NONAME
	_ZN13CSwtLafFacade9GetFontIdENS_19TSwtLafFacadeFontIdEii @ 21 NONAME
	_ZN14CSwtComboProxy10RemoveItemEi @ 22 NONAME
	_ZN14CSwtComboProxy11MinimumSizeEv @ 23 NONAME
	_ZN14CSwtComboProxy11SizeChangedEv @ 24 NONAME
	_ZN14CSwtComboProxy13SetBackgroundEPK21MCoeControlBackground @ 25 NONAME
	_ZN14CSwtComboProxy14HideChoiceListEv @ 26 NONAME
	_ZN14CSwtComboProxy15ShowChoiceListLEv @ 27 NONAME
	_ZN14CSwtComboProxy16SetSelectedIndexEi @ 28 NONAME
	_ZN14CSwtComboProxy19HandleControlEventLEP11CCoeControlN19MCoeControlObserver9TCoeEventE @ 29 NONAME
	_ZN14CSwtComboProxy20HandleResourceChangeEi @ 30 NONAME
	_ZN14CSwtComboProxy4NewLEP11CCoeControlP12CDesC16Array @ 31 NONAME
	_ZN14CSwtComboProxy8AddItemLEPK7TDesC16 @ 32 NONAME
	_ZN14CSwtComboProxy8SetFlagsEi @ 33 NONAME
	_ZN14CSwtComboProxy8SetFocusEi8TDrawNow @ 34 NONAME
	_ZN14CSwtComboProxy8SetItemsEP12CDesC16Array @ 35 NONAME
	_ZN14CSwtComboProxyD0Ev @ 36 NONAME
	_ZN14CSwtComboProxyD1Ev @ 37 NONAME
	_ZN14CSwtComboProxyD2Ev @ 38 NONAME
	_ZN15CSwtButtonProxy10ConstructLEP11CCoeControlP8CGulIconS3_S3_S3_RK7TDesC16S6_ii @ 39 NONAME
	_ZN15CSwtButtonProxy10ConstructLEP11CCoeControlRK7TDesC16iiiiiiiiS4_S4_iiRK11TAknsItemIDS7_S7_S7_ @ 40 NONAME
	_ZN15CSwtButtonProxy10ResetStateEv @ 41 NONAME
	_ZN15CSwtButtonProxy11MakeVisibleEi @ 42 NONAME
	_ZN15CSwtButtonProxy11MinimumSizeEv @ 43 NONAME
	_ZN15CSwtButtonProxy11SetIconSizeERK5TSize @ 44 NONAME
	_ZN15CSwtButtonProxy11SetTextFontEPK5CFont @ 45 NONAME
	_ZN15CSwtButtonProxy11SizeChangedEv @ 46 NONAME
	_ZN15CSwtButtonProxy13SetBackgroundEPK21MCoeControlBackground @ 47 NONAME
	_ZN15CSwtButtonProxy14OfferKeyEventLERK9TKeyEvent10TEventCode @ 48 NONAME
	_ZN15CSwtButtonProxy16SetHighlightRectERK5TRect @ 49 NONAME
	_ZN15CSwtButtonProxy16SetIconScaleModeE10TScaleMode @ 50 NONAME
	_ZN15CSwtButtonProxy19HandleControlEventLEP11CCoeControlN19MCoeControlObserver9TCoeEventE @ 51 NONAME
	_ZN15CSwtButtonProxy19HandlePointerEventLERK13TPointerEvent @ 52 NONAME
	_ZN15CSwtButtonProxy20HandleResourceChangeEi @ 53 NONAME
	_ZN15CSwtButtonProxy20PrepareForFocusGainLEv @ 54 NONAME
	_ZN15CSwtButtonProxy20PrepareForFocusLossLEv @ 55 NONAME
	_ZN15CSwtButtonProxy21SetTextUnderlineStyleE14TFontUnderline @ 56 NONAME
	_ZN15CSwtButtonProxy26SetIconHorizontalAlignmentEi @ 57 NONAME
	_ZN15CSwtButtonProxy26SetTextHorizontalAlignmentEi @ 58 NONAME
	_ZN15CSwtButtonProxy4NewLEP11CCoeControlP8CGulIconRK7TDesC16i @ 59 NONAME
	_ZN15CSwtButtonProxy4NewLEP11CCoeControlP8CGulIconS3_S3_S3_RK7TDesC16S6_ii @ 60 NONAME
	_ZN15CSwtButtonProxy4NewLEP11CCoeControlRK7TDesC16iiiiiiiiS4_S4_iiRK11TAknsItemIDS7_S7_S7_ @ 61 NONAME
	_ZN15CSwtButtonProxy7SetIconEP8CGulIcon @ 62 NONAME
	_ZN15CSwtButtonProxy8SetFlagsEi @ 63 NONAME
	_ZN15CSwtButtonProxy8SetFocusEi8TDrawNow @ 64 NONAME
	_ZN15CSwtButtonProxy8SetTextLERK7TDesC16 @ 65 NONAME
	_ZN15CSwtButtonProxy9ActivateLEv @ 66 NONAME
	_ZN15CSwtButtonProxy9SetDimmedEi @ 67 NONAME
	_ZN15CSwtButtonProxyC1Ev @ 68 NONAME
	_ZN15CSwtButtonProxyC2Ev @ 69 NONAME
	_ZN15CSwtButtonProxyD0Ev @ 70 NONAME
	_ZN15CSwtButtonProxyD1Ev @ 71 NONAME
	_ZN15CSwtButtonProxyD2Ev @ 72 NONAME
	_ZN16CSwtCustomButton5NewLCERK7TDesC16iiiiiiiiS2_S2_iiRK11TAknsItemIDS5_S5_S5_ @ 73 NONAME
	_ZN17CSwtBrowserApItem4NewLEv @ 74 NONAME
	_ZN17CSwtBrowserApItem6ApItemEv @ 75 NONAME
	_ZN18CSwtBrowserApUtils11BearerTypeLEm @ 76 NONAME
	_ZN18CSwtBrowserApUtils12WapApExistsLEm @ 77 NONAME
	_ZN18CSwtBrowserApUtils15IapIdFromWapIdLEm @ 78 NONAME
	_ZN18CSwtBrowserApUtils15WapIdFromIapIdLEm @ 79 NONAME
	_ZN18CSwtBrowserApUtils4NewLER14CCommsDatabase @ 80 NONAME
	_ZN18CSwtPopupFormProxy20OfferResourceChangeLEii @ 81 NONAME
	_ZN18CSwtPopupFormProxy4NewLERK7TDesC16S2_iiiiiiiiiiPK9CEikImagei @ 82 NONAME
	_ZN18CSwtPopupFormProxy4RunLEv @ 83 NONAME
	_ZN20CSwtBrowserVpnApItem12ReadVpnApUidERm @ 84 NONAME
	_ZN20CSwtBrowserVpnApItem13ReadRealIapIdERm @ 85 NONAME
	_ZN20CSwtBrowserVpnApItem4NewLEv @ 86 NONAME
	_ZN20CSwtBrowserVpnApItem8ReadUintEjRm @ 87 NONAME
	_ZN20CSwtButtonStateProxy4NewLER15CAknButtonState @ 88 NONAME
	_ZN20CSwtButtonStateProxy7SetIconEP8CGulIcon @ 89 NONAME
	_ZN20CSwtButtonStateProxy8SetFlagsEi @ 90 NONAME
	_ZN20CSwtButtonStateProxy8SetTextLERK7TDesC16 @ 91 NONAME
	_ZN20CSwtButtonStateProxyD0Ev @ 92 NONAME
	_ZN20CSwtButtonStateProxyD1Ev @ 93 NONAME
	_ZN20CSwtButtonStateProxyD2Ev @ 94 NONAME
	_ZN21CSwtBrowserActiveApDb20FirstAccessPointUidLEv @ 95 NONAME
	_ZN21CSwtBrowserActiveApDb4NewLEv @ 96 NONAME
	_ZN21CSwtMIDRemConObserver21AddMediaKeysListenerLEP21MSwtMediaKeysListener @ 97 NONAME
	_ZN21CSwtMIDRemConObserver23RemoveMediaKeysListenerEP21MSwtMediaKeysListener @ 98 NONAME
	_ZN21CSwtMIDRemConObserver4NewLEv @ 99 NONAME
	_ZN21CSwtMIDRemConObserverD0Ev @ 100 NONAME
	_ZN21CSwtMIDRemConObserverD1Ev @ 101 NONAME
	_ZN21CSwtMIDRemConObserverD2Ev @ 102 NONAME
	_ZN22CSwtBrowserVpnApEngine4NewLER14CCommsDatabase @ 103 NONAME
	_ZN22CSwtBrowserVpnApEngine8IsVpnApLEm @ 104 NONAME
	_ZN22CSwtBrowserVpnApEngine8VpnDataLEmR20CSwtBrowserVpnApItem @ 105 NONAME
	_ZN24CSwtBrowserApDataHandler16AccessPointDataLEmR18CApAccessPointItem @ 106 NONAME
	_ZN24CSwtBrowserApDataHandler4NewLER14CCommsDatabase @ 107 NONAME
	_ZN24CSwtBrowserSchemeHandler16SetParameterListEP20CAiwGenericParamList @ 108 NONAME
	_ZN24CSwtBrowserSchemeHandler18HandleUrlEmbeddedLEv @ 109 NONAME
	_ZN24CSwtBrowserSchemeHandler20HandleUrlStandaloneLEv @ 110 NONAME
	_ZN24CSwtBrowserSchemeHandler4NewLERK7TDesC16 @ 111 NONAME
	_ZN24CSwtBrowserSchemeHandler8ObserverEP25MAknServerAppExitObserver @ 112 NONAME
	_ZN28CSwtBrowserApSettingsHandler12RunSettingsLEmRm @ 113 NONAME
	_ZN28CSwtBrowserApSettingsHandler5NewLCEv @ 114 NONAME
	_ZN31CSwtBrowserDialogsProviderProxy11DialogFindLEv @ 115 NONAME
	_ZN31CSwtBrowserDialogsProviderProxy11DialogNoteLERK7TDesC16 @ 116 NONAME
	_ZN31CSwtBrowserDialogsProviderProxy12DialogAlertLERK7TDesC16S2_ @ 117 NONAME
	_ZN31CSwtBrowserDialogsProviderProxy14DialogConfirmLERK7TDesC16S2_S2_S2_ @ 118 NONAME
	_ZN31CSwtBrowserDialogsProviderProxy14DialogPromptLCERK7TDesC16S2_S2_RP7HBufC16 @ 119 NONAME
	_ZN31CSwtBrowserDialogsProviderProxy18DialogFileSelectLCERK7TDesC16S2_RP7HBufC16 @ 120 NONAME
	_ZN31CSwtBrowserDialogsProviderProxy18DialogNotifyErrorLEi @ 121 NONAME
	_ZN31CSwtBrowserDialogsProviderProxy19DialogSelectOptionLERK7TDesC1622TBrCtlSelectOptionTypeR9CArrayFixI22TBrCtlSelectOptionDataE @ 122 NONAME
	_ZN31CSwtBrowserDialogsProviderProxy21DialogDownloadObjectLEP16CBrCtlObjectInfo @ 123 NONAME
	_ZN31CSwtBrowserDialogsProviderProxy22DialogNotifyHttpErrorLEiRK7TDesC16 @ 124 NONAME
	_ZN31CSwtBrowserDialogsProviderProxy24DialogDisplayPageImagesLER13CArrayFixFlatI18TBrCtlImageCarrierE @ 125 NONAME
	_ZN31CSwtBrowserDialogsProviderProxy26DialogUserAuthenticationLCERK7TDesC16S2_S2_RP7HBufC16S5_i @ 126 NONAME
	_ZN31CSwtBrowserDialogsProviderProxy4NewLEP34MSwtBrowserDialogsProviderObserver @ 127 NONAME
	_ZN31CSwtBrowserDialogsProviderProxy9CancelAllEv @ 128 NONAME
	_ZN31CSwtBrowserDialogsProviderProxyD0Ev @ 129 NONAME
	_ZN31CSwtBrowserDialogsProviderProxyD1Ev @ 130 NONAME
	_ZN31CSwtBrowserDialogsProviderProxyD2Ev @ 131 NONAME
	_ZNK14CSwtComboProxy13SelectedIndexEv @ 132 NONAME
	_ZNK14CSwtComboProxy16ComponentControlEi @ 133 NONAME
	_ZNK14CSwtComboProxy22CountComponentControlsEv @ 134 NONAME
	_ZNK14CSwtComboProxy5FlagsEv @ 135 NONAME
	_ZNK14CSwtComboProxy9IsFocusedEv @ 136 NONAME
	_ZNK15CSwtButtonProxy11ButtonFlagsEv @ 137 NONAME
	_ZNK15CSwtButtonProxy13HighlightRectEv @ 138 NONAME
	_ZNK15CSwtButtonProxy16ComponentControlEi @ 139 NONAME
	_ZNK15CSwtButtonProxy22CountComponentControlsEv @ 140 NONAME
	_ZNK15CSwtButtonProxy4IconEv @ 141 NONAME
	_ZNK15CSwtButtonProxy4TextEv @ 142 NONAME
	_ZNK15CSwtButtonProxy5FlagsEv @ 143 NONAME
	_ZNK15CSwtButtonProxy5StateEv @ 144 NONAME
	_ZNK15CSwtButtonProxy8IsDimmedEv @ 145 NONAME
	_ZNK15CSwtButtonProxy9IsFocusedEv @ 146 NONAME
	_ZNK20CSwtButtonStateProxy4IconEv @ 147 NONAME
	_ZNK20CSwtButtonStateProxy4TextEv @ 148 NONAME
	_ZNK20CSwtButtonStateProxy5FlagsEv @ 149 NONAME
	_ZNK21CSwtBrowserActiveApDb4ApDbEv @ 150 NONAME
	_ZNK21CSwtBrowserActiveApDb7CommsDbEv @ 151 NONAME
	_ZTI14CSwtComboProxy @ 152 NONAME ; #<TI>#
	_ZTI15CSwtButtonProxy @ 153 NONAME ; #<TI>#
	_ZTI17CSwtBrowserApItem @ 154 NONAME ; #<TI>#
	_ZTI18CSwtBrowserApUtils @ 155 NONAME ; #<TI>#
	_ZTI18CSwtPopupFormProxy @ 156 NONAME ; #<TI>#
	_ZTI20CSwtBrowserVpnApItem @ 157 NONAME ; #<TI>#
	_ZTI20CSwtButtonStateProxy @ 158 NONAME ; #<TI>#
	_ZTI21CSwtBrowserActiveApDb @ 159 NONAME ; #<TI>#
	_ZTI22CSwtBrowserVpnApEngine @ 160 NONAME ; #<TI>#
	_ZTI23CSwtBrowserApDbObserver @ 161 NONAME ; #<TI>#
	_ZTI24CSwtBrowserApDataHandler @ 162 NONAME ; #<TI>#
	_ZTI24CSwtBrowserSchemeHandler @ 163 NONAME ; #<TI>#
	_ZTI25CSwtPopupFormProxyPrivate @ 164 NONAME ; #<TI>#
	_ZTI28CSwtBrowserApSettingsHandler @ 165 NONAME ; #<TI>#
	_ZTI31CSwtBrowserDialogsProviderProxy @ 166 NONAME ; #<TI>#
	_ZTI46CSwtBrowserDialogsProviderObserverProxyPrivate @ 167 NONAME ; #<TI>#
	_ZTV14CSwtComboProxy @ 168 NONAME ; #<VT>#
	_ZTV15CSwtButtonProxy @ 169 NONAME ; #<VT>#
	_ZTV17CSwtBrowserApItem @ 170 NONAME ; #<VT>#
	_ZTV18CSwtBrowserApUtils @ 171 NONAME ; #<VT>#
	_ZTV18CSwtPopupFormProxy @ 172 NONAME ; #<VT>#
	_ZTV20CSwtBrowserVpnApItem @ 173 NONAME ; #<VT>#
	_ZTV20CSwtButtonStateProxy @ 174 NONAME ; #<VT>#
	_ZTV21CSwtBrowserActiveApDb @ 175 NONAME ; #<VT>#
	_ZTV22CSwtBrowserVpnApEngine @ 176 NONAME ; #<VT>#
	_ZTV23CSwtBrowserApDbObserver @ 177 NONAME ; #<VT>#
	_ZTV24CSwtBrowserApDataHandler @ 178 NONAME ; #<VT>#
	_ZTV24CSwtBrowserSchemeHandler @ 179 NONAME ; #<VT>#
	_ZTV25CSwtPopupFormProxyPrivate @ 180 NONAME ; #<VT>#
	_ZTV28CSwtBrowserApSettingsHandler @ 181 NONAME ; #<VT>#
	_ZTV31CSwtBrowserDialogsProviderProxy @ 182 NONAME ; #<VT>#
	_ZTV46CSwtBrowserDialogsProviderObserverProxyPrivate @ 183 NONAME ; #<VT>#
	_ZThn4_N31CSwtBrowserDialogsProviderProxy11DialogFindLEv @ 184 NONAME ; #<thunk>#
	_ZThn4_N31CSwtBrowserDialogsProviderProxy11DialogNoteLERK7TDesC16 @ 185 NONAME ; #<thunk>#
	_ZThn4_N31CSwtBrowserDialogsProviderProxy12DialogAlertLERK7TDesC16S2_ @ 186 NONAME ; #<thunk>#
	_ZThn4_N31CSwtBrowserDialogsProviderProxy14DialogConfirmLERK7TDesC16S2_S2_S2_ @ 187 NONAME ; #<thunk>#
	_ZThn4_N31CSwtBrowserDialogsProviderProxy14DialogPromptLCERK7TDesC16S2_S2_RP7HBufC16 @ 188 NONAME ; #<thunk>#
	_ZThn4_N31CSwtBrowserDialogsProviderProxy18DialogFileSelectLCERK7TDesC16S2_RP7HBufC16 @ 189 NONAME ; #<thunk>#
	_ZThn4_N31CSwtBrowserDialogsProviderProxy18DialogNotifyErrorLEi @ 190 NONAME ; #<thunk>#
	_ZThn4_N31CSwtBrowserDialogsProviderProxy19DialogSelectOptionLERK7TDesC1622TBrCtlSelectOptionTypeR9CArrayFixI22TBrCtlSelectOptionDataE @ 191 NONAME ; #<thunk>#
	_ZThn4_N31CSwtBrowserDialogsProviderProxy21DialogDownloadObjectLEP16CBrCtlObjectInfo @ 192 NONAME ; #<thunk>#
	_ZThn4_N31CSwtBrowserDialogsProviderProxy22DialogNotifyHttpErrorLEiRK7TDesC16 @ 193 NONAME ; #<thunk>#
	_ZThn4_N31CSwtBrowserDialogsProviderProxy24DialogDisplayPageImagesLER13CArrayFixFlatI18TBrCtlImageCarrierE @ 194 NONAME ; #<thunk>#
	_ZThn4_N31CSwtBrowserDialogsProviderProxy26DialogUserAuthenticationLCERK7TDesC16S2_S2_RP7HBufC16S5_i @ 195 NONAME ; #<thunk>#
	_ZThn4_N31CSwtBrowserDialogsProviderProxy9CancelAllEv @ 196 NONAME ; #<thunk>#
	_ZThn76_N14CSwtComboProxy19HandleControlEventLEP11CCoeControlN19MCoeControlObserver9TCoeEventE @ 197 NONAME ; #<thunk>#
	_ZThn76_N15CSwtButtonProxy19HandleControlEventLEP11CCoeControlN19MCoeControlObserver9TCoeEventE @ 198 NONAME ; #<thunk>#

