EXPORTS
	?AddEntryL@CJavaRegistry@@QAEXAAVCJavaRegistrySuiteEntry@@@Z @ 1 NONAME ABSENT ; public: void __thiscall CJavaRegistry::AddEntryL(class CJavaRegistrySuiteEntry &)
	?AddMIDletL@CJavaRegistrySuiteEntry@@QAE?AVTUid@@ABVTDesC16@@@Z @ 2 NONAME ABSENT ; public: class TUid  __thiscall CJavaRegistrySuiteEntry::AddMIDletL(class TDesC16 const &)
	?CreateL@MJavaRegistry@@SAPAV1@XZ @ 3 NONAME ; public: static class MJavaRegistry * __cdecl MJavaRegistry::CreateL(void)
	?MIDletUids@CJavaRegistrySuiteEntry@@QBEABV?$RArray@VTUid@@@@XZ @ 4 NONAME ; public: class RArray<class TUid> const & __thiscall CJavaRegistrySuiteEntry::MIDletUids(void)const 
	?NewL@CJavaRegistry@@SAPAV1@XZ @ 5 NONAME ; public: static class CJavaRegistry * __cdecl CJavaRegistry::NewL(void)
	?NewL@CJavaRegistrySuiteEntry@@SAPAV1@AAVCInstalledAppsRegistryEntry@@@Z @ 6 NONAME ; public: static class CJavaRegistrySuiteEntry * __cdecl CJavaRegistrySuiteEntry::NewL(class CInstalledAppsRegistryEntry &)
	?NewLC@CJavaRegistry@@SAPAV1@XZ @ 7 NONAME ; public: static class CJavaRegistry * __cdecl CJavaRegistry::NewLC(void)
	?NewLC@CJavaRegistrySuiteEntry@@SAPAV1@AAVCInstalledAppsRegistryEntry@@@Z @ 8 NONAME ; public: static class CJavaRegistrySuiteEntry * __cdecl CJavaRegistrySuiteEntry::NewLC(class CInstalledAppsRegistryEntry &)
	?NewLC@CJavaRegistrySuiteEntry@@SAPAV1@XZ @ 9 NONAME ; public: static class CJavaRegistrySuiteEntry * __cdecl CJavaRegistrySuiteEntry::NewLC(void)
	?SetJadPathL@CJavaRegistrySuiteEntry@@QAEXABVTDesC16@@@Z @ 10 NONAME ABSENT ; public: void __thiscall CJavaRegistrySuiteEntry::SetJadPathL(class TDesC16 const &)
	?SetJadUrlL@CJavaRegistrySuiteEntry@@QAEXABVTDesC16@@@Z @ 11 NONAME ABSENT ; public: void __thiscall CJavaRegistrySuiteEntry::SetJadUrlL(class TDesC16 const &)
	?SetJarPathL@CJavaRegistrySuiteEntry@@QAEXABVTDesC16@@@Z @ 12 NONAME ABSENT ; public: void __thiscall CJavaRegistrySuiteEntry::SetJarPathL(class TDesC16 const &)
	?SetJarUrlL@CJavaRegistrySuiteEntry@@QAEXABVTDesC16@@@Z @ 13 NONAME ABSENT ; public: void __thiscall CJavaRegistrySuiteEntry::SetJarUrlL(class TDesC16 const &)
	?SetSuiteNameAndVendorL@CJavaRegistrySuiteEntry@@QAEXABVTDesC16@@0@Z @ 14 NONAME ABSENT ; public: void __thiscall CJavaRegistrySuiteEntry::SetSuiteNameAndVendorL(class TDesC16 const &,class TDesC16 const &)
	?SetVersion@CJavaRegistrySuiteEntry@@QAEXABVTAppVersion@@@Z @ 15 NONAME ABSENT ; public: void __thiscall CJavaRegistrySuiteEntry::SetVersion(class TAppVersion const &)
	?WriteableEntry@CJavaRegistrySuiteEntry@@QAEAAVCInstalledAppsRegistryEntry@@XZ @ 16 NONAME ; public: class CInstalledAppsRegistryEntry & __thiscall CJavaRegistrySuiteEntry::WriteableEntry(void)
	?DeleteEntry@CJavaRegistry@@QAEHABVTUid@@@Z @ 17 NONAME ABSENT ; public: int __thiscall CJavaRegistry::DeleteEntry(class TUid const &)
	?NewL@CJavaRegistrySuiteEntry@@SAPAV1@XZ @ 18 NONAME ; public: static class CJavaRegistrySuiteEntry * __cdecl CJavaRegistrySuiteEntry::NewL(void)
	?AddMIDletL@CJavaRegistrySuiteEntry@@QAEXABVTUid@@ABVTDesC16@@@Z @ 19 NONAME ABSENT ; void CJavaRegistrySuiteEntry::AddMIDletL(class TUid const &, class TDesC16 const &)
	?AddMIDletL@CJavaRegistrySuiteEntry@@QAEXABVTDesC16@@ABVTUid@@@Z @ 20 NONAME ABSENT ; void CJavaRegistrySuiteEntry::AddMIDletL(class TDesC16 const &, class TUid const &)
