EXPORTS
	_Z10jni_lookupPKc @ 1 NONAME
	_Z16CreateJavaStringR7JNIEnv_RK7TDesC16 @ 2 NONAME
	_Z25CopyToNewJavaStringArrayLR7JNIEnv_RK12CDesC16Array @ 3 NONAME
	_ZN10ArrayUtils10CopyToJavaER7JNIEnv_RK6TDesC8P11_jbyteArrayii @ 4 NONAME
	_ZN10CJesServerC1EP12MJesShutdown @ 5 NONAME
	_ZN10CJesServerC2EP12MJesShutdown @ 6 NONAME
	_ZN12JavaEpocTime14CreateJavaTimeE5TTime @ 7 NONAME
	_ZN12JavaEpocTime15CreateEpocTTimeEx @ 8 NONAME
	_ZN13JniEnvWrapper14GetValidJniRefEv @ 9 NONAME
	_ZN16TJavaEventServer4NewLERK7TDesC16PFiPvES3_ @ 10 NONAME
	_ZN16TJavaEventServer4NewLERK7TDesC16PFiPvES3_jP10RAllocator @ 11 NONAME
	_ZN20CJavaEventSourceBase10CheckEventEP14CJavaEventBase @ 12 NONAME
	_ZN20CJavaEventSourceBase10ConstructLER7JNIEnv_P8_jobject16TJavaEventServer @ 13 NONAME
	_ZN20CJavaEventSourceBase11DoPostEventEP14CJavaEventBasei @ 14 NONAME
	_ZN20CJavaEventSourceBase11FinalizeJniER7JNIEnv_ @ 15 NONAME
	_ZN20CJavaEventSourceBase11FinalizeSvrEv @ 16 NONAME
	_ZN20CJavaEventSourceBase13DoExecuteTrapEPvz @ 17 NONAME
	_ZN20CJavaEventSourceBase16TConstructorBaseC1EPS_R7JNIEnv_ @ 18 NONAME
	_ZN20CJavaEventSourceBase16TConstructorBaseC2EPS_R7JNIEnv_ @ 19 NONAME
	_ZN20CJavaEventSourceBase5CloseER7JNIEnv_ @ 20 NONAME
	_ZN20CJavaEventSourceBase5PanicEi @ 21 NONAME
	_ZN20CJavaEventSourceBase9DoExecuteEPvz @ 22 NONAME
	_ZN20CJavaEventSourceBaseC1Ev @ 23 NONAME
	_ZN20CJavaEventSourceBaseC2Ev @ 24 NONAME
	_ZN20CJavaEventSourceBaseD0Ev @ 25 NONAME
	_ZN20CJavaEventSourceBaseD1Ev @ 26 NONAME
	_ZN20CJavaEventSourceBaseD2Ev @ 27 NONAME
	_ZN8RJStringC1ER7JNIEnv_P8_jstring @ 28 NONAME
	_ZN8RJStringC2ER7JNIEnv_P8_jstring @ 29 NONAME
	_ZN8RJStringD1Ev @ 30 NONAME
	_ZN8RJStringD2Ev @ 31 NONAME
	_ZTI10CJesServer @ 32 NONAME ; #<TI>#
	_ZTI11CEventQueue @ 33 NONAME ; #<TI>#
	_ZTI11CJesSession @ 34 NONAME ; #<TI>#
	_ZTI12CJesShutdown @ 35 NONAME ; #<TI>#
	_ZTI13CJesScheduler @ 36 NONAME ; #<TI>#
	_ZTI16CJavaEventServer @ 37 NONAME ; #<TI>#
	_ZTI20CJavaEventSourceBase @ 38 NONAME ; #<TI>#
	_ZTI9CIntQueue @ 39 NONAME ; #<TI>#
	_ZTV10CJesServer @ 40 NONAME ; #<VT>#
	_ZTV11CEventQueue @ 41 NONAME ; #<VT>#
	_ZTV11CJesSession @ 42 NONAME ; #<VT>#
	_ZTV12CJesShutdown @ 43 NONAME ; #<VT>#
	_ZTV13CJesScheduler @ 44 NONAME ; #<VT>#
	_ZTV16CJavaEventServer @ 45 NONAME ; #<VT>#
	_ZTV20CJavaEventSourceBase @ 46 NONAME ; #<VT>#
	_ZTV9CIntQueue @ 47 NONAME ; #<VT>#
	_ZN16TJavaEventServer8ShutdownEv @ 48 NONAME
	_ZN13CTimeOutTimer4NewLEiR14MTimeOutNotify @ 49 NONAME
	_ZTI13CTimeOutTimer @ 50 NONAME ; #<TI>#
	_ZTV13CTimeOutTimer @ 51 NONAME ; #<VT>#

