EXPORTS
	??1CWimCert@@UAE@XZ @ 1 NONAME ; CWimCert::~CWimCert(void)
	??1CWimCertConverter@@UAE@XZ @ 2 NONAME ; CWimCertConverter::~CWimCertConverter(void)
	??1CWimKeyDetails@@UAE@XZ @ 3 NONAME ; CWimKeyDetails::~CWimKeyDetails(void)
	??1CWimOMAProv@@UAE@XZ @ 4 NONAME ; CWimOMAProv::~CWimOMAProv(void)
	??1CWimPin@@UAE@XZ @ 5 NONAME ; CWimPin::~CWimPin(void)
	??1CWimSecModule@@UAE@XZ @ 6 NONAME ; CWimSecModule::~CWimSecModule(void)
	??1CWimSecModuleMgr@@UAE@XZ @ 7 NONAME ; CWimSecModuleMgr::~CWimSecModuleMgr(void)
	??1CWimTrustSettingsAPI@@UAE@XZ @ 8 NONAME ; CWimTrustSettingsAPI::~CWimTrustSettingsAPI(void)
	?AddCertificate@CWimCertConverter@@QAEXABVTDesC16@@W4TCertificateFormat@@W4TCertificateOwnerType@@ABV?$TBuf8@$0BE@@@3ABVTDesC8@@AAVTRequestStatus@@@Z @ 9 NONAME ; void CWimCertConverter::AddCertificate(class TDesC16 const &, enum TCertificateFormat, enum TCertificateOwnerType, class TBuf8<20> const &, class TBuf8<20> const &, class TDesC8 const &, class TRequestStatus &)
	?CancelAddCertificate@CWimCertConverter@@QAEXXZ @ 10 NONAME ; void CWimCertConverter::CancelAddCertificate(void)
	?CancelChangePin@CWimPin@@QAEXXZ @ 11 NONAME ; void CWimPin::CancelChangePin(void)
	?CancelDisablePinQuery@CWimPin@@QAEXXZ @ 12 NONAME ; void CWimPin::CancelDisablePinQuery(void)
	?CancelDoing@CWimTrustSettingsAPI@@QAEXXZ @ 13 NONAME ; void CWimTrustSettingsAPI::CancelDoing(void)
	?CancelEnablePinQuery@CWimPin@@QAEXXZ @ 14 NONAME ; void CWimPin::CancelEnablePinQuery(void)
	?CancelExport@CWimKeyDetails@@QAEXXZ @ 15 NONAME ; void CWimKeyDetails::CancelExport(void)
	?CancelGetExtras@CWimCert@@QAEXXZ @ 16 NONAME ; void CWimCert::CancelGetExtras(void)
	?CancelGetSize@CWimOMAProv@@QAEXXZ @ 17 NONAME ; void CWimOMAProv::CancelGetSize(void)
	?CancelInitialize@CWimCert@@QAEXXZ @ 18 NONAME ; void CWimCert::CancelInitialize(void)
	?CancelInitialize@CWimOMAProv@@QAEXXZ @ 19 NONAME ; void CWimOMAProv::CancelInitialize(void)
	?CancelList@CWimKeyDetails@@QAEXXZ @ 20 NONAME ; void CWimKeyDetails::CancelList(void)
	?CancelList@CWimSecModuleMgr@@QAEXXZ @ 21 NONAME ; void CWimSecModuleMgr::CancelList(void)
	?CancelNotifyOnRemoval@CWimSecModule@@QAEXXZ @ 22 NONAME ; void CWimSecModule::CancelNotifyOnRemoval(void)
	?CancelRemove@CWimCertConverter@@QAEXXZ @ 23 NONAME ; void CWimCertConverter::CancelRemove(void)
	?CancelRestore@CWimCertConverter@@QAEXXZ @ 24 NONAME ; void CWimCertConverter::CancelRestore(void)
	?CancelRetrieve@CWimCertConverter@@QAEXXZ @ 25 NONAME ; void CWimCertConverter::CancelRetrieve(void)
	?CancelRetrieve@CWimOMAProv@@QAEXXZ @ 26 NONAME ; void CWimOMAProv::CancelRetrieve(void)
	?CancelSign@CWimKeyDetails@@QAEXXZ @ 27 NONAME ; void CWimKeyDetails::CancelSign(void)
	?CancelUnblockPin@CWimPin@@QAEXXZ @ 28 NONAME ; void CWimPin::CancelUnblockPin(void)
	?CancelVerifyPin@CWimPin@@QAEXXZ @ 29 NONAME ; void CWimPin::CancelVerifyPin(void)
	?ChangePin@CWimPin@@QAEXAAVTRequestStatus@@@Z @ 30 NONAME ; void CWimPin::ChangePin(class TRequestStatus &)
	?Close@CWimSecModule@@QAEHXZ @ 31 NONAME ; int CWimSecModule::Close(void)
	?Close@CWimTrustSettingsAPI@@QAEXXZ @ 32 NONAME ; void CWimTrustSettingsAPI::Close(void)
	?CloseAfter@CWimSecModule@@QAEHXZ @ 33 NONAME ; int CWimSecModule::CloseAfter(void)
	?DisablePinQuery@CWimPin@@QAEXAAVTRequestStatus@@@Z @ 34 NONAME ; void CWimPin::DisablePinQuery(class TRequestStatus &)
	?EnablePinQuery@CWimPin@@QAEXAAVTRequestStatus@@@Z @ 35 NONAME ; void CWimPin::EnablePinQuery(class TRequestStatus &)
	?ExportPublicKeyL@CWimKeyDetails@@QAEXAAVTDesC8@@AAPAVHBufC8@@AAVTRequestStatus@@@Z @ 36 NONAME ; void CWimKeyDetails::ExportPublicKeyL(class TDesC8 &, class HBufC8 * &, class TRequestStatus &)
	?GetEntries@CWimSecModuleMgr@@QAEXAAV?$RCPointerArray@VHBufC16@@@@AAVTRequestStatus@@@Z @ 37 NONAME ; void CWimSecModuleMgr::GetEntries(class RCPointerArray<class HBufC16> &, class TRequestStatus &)
	?GetExtras@CWimCert@@QAEXABVTDesC8@@AAV?$RCPointerArray@VHBufC16@@@@AAW4TCertLocation@@AAVTRequestStatus@@@Z @ 38 NONAME ; void CWimCert::GetExtras(class TDesC8 const &, class RCPointerArray<class HBufC16> &, enum TCertLocation &, class TRequestStatus &)
	?GetKeyList@CWimKeyDetails@@QAEXAAV?$RPointerArray@VCCTKeyInfo@@@@AAV?$CArrayFixFlat@E@@AAVTRequestStatus@@@Z @ 39 NONAME ; void CWimKeyDetails::GetKeyList(class RPointerArray<class CCTKeyInfo> &, class CArrayFixFlat<unsigned char> &, class TRequestStatus &)
	?GetSize@CWimOMAProv@@QAEXAAHABW4TOMAType@@AAVTRequestStatus@@@Z @ 40 NONAME ; void CWimOMAProv::GetSize(int &, enum TOMAType const &, class TRequestStatus &)
	?GetTrustSettings@CWimTrustSettingsAPI@@QAEXABVCWimCertInfo@@AAHAAV?$RArray@VTUid@@@@AAVTRequestStatus@@@Z @ 41 NONAME ; void CWimTrustSettingsAPI::GetTrustSettings(class CWimCertInfo const &, int &, class RArray<class TUid> &, class TRequestStatus &)
	?GetWimSecModuleByIndexL@CWimSecModuleMgr@@QAEPAVCWimSecModule@@H@Z @ 42 NONAME ; class CWimSecModule * CWimSecModuleMgr::GetWimSecModuleByIndexL(int)
	?Initialize@CWimCert@@QAEXAAVTRequestStatus@@@Z @ 43 NONAME ; void CWimCert::Initialize(class TRequestStatus &)
	?Initialize@CWimOMAProv@@QAEXAAVTRequestStatus@@@Z @ 44 NONAME ; void CWimOMAProv::Initialize(class TRequestStatus &)
	?IsOpen@CWimSecModule@@QAEHXZ @ 45 NONAME ; int CWimSecModule::IsOpen(void)
	?Label@CWimPin@@QAE?AVTPtrC16@@XZ @ 46 NONAME ; class TPtrC16 CWimPin::Label(void)
	?Label@CWimSecModule@@QAE?AVTPtrC16@@XZ @ 47 NONAME ; class TPtrC16 CWimSecModule::Label(void)
	?Manufacturer@CWimSecModule@@QAEABVTDesC16@@XZ @ 48 NONAME ; class TDesC16 const & CWimSecModule::Manufacturer(void)
	?NewL@CWimCert@@SAPAV1@XZ @ 49 NONAME ; class CWimCert * CWimCert::NewL(void)
