EXPORTS
	_Z10jni_lookupPKc @ 1 NONAME
	_Z10findMethodPKcPK9FuncTablei @ 2 NONAME
	_Z11stringToDesPKc @ 3 NONAME
	_Z12desToWstringR6TPtr16 @ 4 NONAME
	_Z12wstringToBufRKSbIwSt11char_traitsIwESaIwEE @ 5 NONAME
	_Z19wstringToAppVersionRKSbIwSt11char_traitsIwESaIwEE @ 6 NONAME
	_Z9TUidToUidRK4TUidRN4java4util3UidE @ 7 NONAME
	_Z9uidToTUidRKN4java4util3UidER4TUid @ 8 NONAME
	_ZN12JStringUtilsC1ER7JNIEnv_P8_jstring @ 9 NONAME
	_ZN12JStringUtilsC2ER7JNIEnv_P8_jstring @ 10 NONAME
	_ZN12JStringUtilsD1Ev @ 11 NONAME
	_ZN12JStringUtilsD2Ev @ 12 NONAME
	_ZN12MethodCaller21ExecuteRegularFunctorERK7FunctorPN4java4util14FunctionServerEPi @ 13 NONAME
	_ZN12MethodCaller22ExecuteLeavingFunctorLERK7FunctorPN4java4util14FunctionServerEPi @ 14 NONAME
	_ZN12MethodCaller22ExecuteTrapingFunctorLERK7FunctorPN4java4util14FunctionServerEPi @ 15 NONAME
	_ZN13JNIArrayUtils10CopyToJavaER7JNIEnv_PKciP11_jbyteArrayii @ 16 NONAME
	_ZN13JNIArrayUtils12CopyToNativeER7JNIEnv_P11_jbyteArrayiiPc @ 17 NONAME
	_ZN13JNIArrayUtils19WStringToJavaStringER7JNIEnv_PKwi @ 18 NONAME
	_ZN4java4util11JavaOsLayer10getBinRootERSsb @ 19 NONAME
	_ZN4java4util11JavaOsLayer10getResRootERSsb @ 20 NONAME
	_ZN4java4util11JavaOsLayer11getMidpRootERSsb @ 21 NONAME
	_ZN4java4util11JavaOsLayer12getMidpDriveEv @ 22 NONAME
	_ZN4java4util11JavaOsLayer12startUpTraceERKSsii @ 23 NONAME
	_ZN4java4util11JavaOsLayer18getJavaCaptainRootERSsb @ 24 NONAME
	_ZN4java4util11JavaOsLayer20getOsSpecificLibNameERSsPKc @ 25 NONAME
	_ZN4java4util11JavaOsLayer25getOsSpecificJavaRootPathERSs @ 26 NONAME
	_ZN4java4util11JavaOsLayer5dlsymEPvPKcb @ 27 NONAME
	_ZN4java4util11JavaOsLayer6dlopenEPKc @ 28 NONAME
	_ZN4java4util11JavaOsLayer7dlcloseEPv @ 29 NONAME
	_ZN4java4util13TEntryExitLogC1E11TComponentsPKc @ 30 NONAME
	_ZN4java4util13TEntryExitLogC1E11TComponentsiPKc @ 31 NONAME
	_ZN4java4util13TEntryExitLogC2E11TComponentsPKc @ 32 NONAME
	_ZN4java4util13TEntryExitLogC2E11TComponentsiPKc @ 33 NONAME
	_ZN4java4util13TEntryExitLogD1Ev @ 34 NONAME
	_ZN4java4util13TEntryExitLogD2Ev @ 35 NONAME
	_ZN4java4util14FunctionServer10attachToVmER7JNIEnv_P8_jobject @ 36 NONAME
	_ZN4java4util14FunctionServer10stopServerEv @ 37 NONAME
	_ZN4java4util14FunctionServer10vmAttachedEv @ 38 NONAME
	_ZN4java4util14FunctionServer10vmDetachedEv @ 39 NONAME
	_ZN4java4util14FunctionServer11startServerEv @ 40 NONAME
	_ZN4java4util14FunctionServer12detachFromVmEv @ 41 NONAME
	_ZN4java4util14FunctionServer16doServerSideInitEv @ 42 NONAME
	_ZN4java4util14FunctionServer17createAndStartSrvEv @ 43 NONAME
	_ZN4java4util14FunctionServer17doServerSideCleanEv @ 44 NONAME
	_ZN4java4util14FunctionServer23createServerToNewThreadEv @ 45 NONAME
	_ZN4java4util14FunctionServer27createServerToCurrentThreadEv @ 46 NONAME
	_ZN4java4util14FunctionServer28stopServerInsideServerThreadEb @ 47 NONAME
	_ZN4java4util14FunctionServerC1ERKSs @ 48 NONAME
	_ZN4java4util14FunctionServerC2ERKSs @ 49 NONAME
	_ZN4java4util14FunctionServerD0Ev @ 50 NONAME
	_ZN4java4util14FunctionServerD1Ev @ 51 NONAME
	_ZN4java4util14FunctionServerD2Ev @ 52 NONAME
	_ZN4java4util14S60CommonUtils10CopyToJavaER7JNIEnv_RK6TDesC8P11_jbyteArrayii @ 53 NONAME
	_ZN4java4util14S60CommonUtils10CopyWiderLERK7TDesC16RPS2_ @ 54 NONAME
	_ZN4java4util14S60CommonUtils11CopyNarrowLERK6TDesC8RPS2_ @ 55 NONAME
	_ZN4java4util14S60CommonUtils11CopyWiderLCERK7TDesC16RPS2_ @ 56 NONAME
	_ZN4java4util14S60CommonUtils12CopyNarrowLCERK6TDesC8RPS2_ @ 57 NONAME
	_ZN4java4util14S60CommonUtils12CopyToNativeER7JNIEnv_P11_jbyteArrayiiR5TDes8 @ 58 NONAME
	_ZN4java4util14S60CommonUtils12wstringToDesEPKw @ 59 NONAME
	_ZN4java4util14S60CommonUtils15JavaTimeToTTimeEx @ 60 NONAME
	_ZN4java4util14S60CommonUtils15TTimeToJavaTimeE5TTime @ 61 NONAME
	_ZN4java4util14S60CommonUtils18NativeToJavaStringER7JNIEnv_RK7TDesC16 @ 62 NONAME
	_ZN4java4util14S60CommonUtils21ConvertNarrowToWiderLERK6TDesC8RP7TDesC16 @ 63 NONAME
	_ZN4java4util14S60CommonUtils21ConvertWiderToNarrowLERK7TDesC16RP6TDesC8 @ 64 NONAME
	_ZN4java4util14S60CommonUtils22ConvertNarrowToWiderLCERK6TDesC8RP7TDesC16 @ 65 NONAME
	_ZN4java4util14S60CommonUtils22ConvertWiderToNarrowLCERK7TDesC16RP6TDesC8 @ 66 NONAME
	_ZN4java4util14S60CommonUtils23NativeToJavaStringArrayER7JNIEnv_RK13RPointerArrayI7HBufC16E @ 67 NONAME
	_ZN4java4util15JavaCommonUtils11intToStringERKi @ 68 NONAME
	_ZN4java4util15JavaCommonUtils11stringToIntERKSs @ 69 NONAME
	_ZN4java4util15JavaCommonUtils11trimWstringERSbIwSt11char_traitsIwESaIwEERKw @ 70 NONAME
	_ZN4java4util15JavaCommonUtils12base64decodeERKSs @ 71 NONAME
	_ZN4java4util15JavaCommonUtils12base64encodeERKSs @ 72 NONAME
	_ZN4java4util15JavaCommonUtils12intToWstringERKi @ 73 NONAME
	_ZN4java4util15JavaCommonUtils12wstringToIntERKSbIwSt11char_traitsIwESaIwEE @ 74 NONAME
	_ZN4java4util15JavaCommonUtils13utf8ToWstringEPKc @ 75 NONAME
	_ZN4java4util15JavaCommonUtils13wstringToUtf8ERKSbIwSt11char_traitsIwESaIwEE @ 76 NONAME
	_ZN4java4util15JavaCommonUtils16longLongToStringERKx @ 77 NONAME
	_ZN4java4util15JavaCommonUtils16stringToLongLongERKSs @ 78 NONAME
	_ZN4java4util15JavaCommonUtils17longLongToWstringERKx @ 79 NONAME
	_ZN4java4util15JavaCommonUtils17wstringToLongLongERKSbIwSt11char_traitsIwESaIwEE @ 80 NONAME
	_ZN4java4util16DynamicLibLoader11getFunctionEPKcb @ 81 NONAME
	_ZN4java4util16DynamicLibLoader18loadAndGetFunctionERPvPKcS5_ @ 82 NONAME
	_ZN4java4util16DynamicLibLoader7openLibEv @ 83 NONAME
	_ZN4java4util16DynamicLibLoader8closeLibEv @ 84 NONAME
	_ZN4java4util16DynamicLibLoaderC1EPKc @ 85 NONAME
	_ZN4java4util16DynamicLibLoaderC2EPKc @ 86 NONAME
	_ZN4java4util16DynamicLibLoaderD0Ev @ 87 NONAME
	_ZN4java4util16DynamicLibLoaderD1Ev @ 88 NONAME
	_ZN4java4util16DynamicLibLoaderD2Ev @ 89 NONAME
	_ZN4java4util16JavaIniFileUtils11getPropertyERKSs @ 90 NONAME
	_ZN4java4util16JavaIniFileUtils11setPropertyERKSsi @ 91 NONAME
	_ZN4java4util16OsFunctionServer8RunErrorEi @ 92 NONAME
	_ZN4java4util26setApplicationInfoProviderERKNS_7runtime15ApplicationInfoE @ 93 NONAME
	_ZN4java4util6Logger3LogE11TComponents10TLogLevelsPKcz @ 94 NONAME
	_ZN4java4util7Monitor13createMonitorEv @ 95 NONAME
	_ZN4java4util7Monitor4waitEi @ 96 NONAME
	_ZN4java4util7Monitor6notifyEv @ 97 NONAME
	_ZN4java4util8JniUtils16jstringToWstringEP7JNIEnv_RKP8_jstring @ 98 NONAME
	_ZN4java4util8JniUtils16wstringToJstringEP7JNIEnv_RKSbIwSt11char_traitsIwESaIwEE @ 99 NONAME
	_ZN4java4util8JniUtils17throwNewExceptionEP7JNIEnv_RKSsS5_ @ 100 NONAME
	_ZN4java7runtime15ApplicationInfo11getInstanceEv @ 101 NONAME
	_ZN4java7runtime15ApplicationInfoC2Ev @ 102 NONAME
	_ZN4java7runtime15ApplicationInfoD0Ev @ 103 NONAME
	_ZN4java7runtime15ApplicationInfoD1Ev @ 104 NONAME
	_ZN4java7runtime15ApplicationInfoD2Ev @ 105 NONAME
	_ZNK4java4util16OsFunctionServer11NewSessionLERK8TVersionRK9RMessage2 @ 106 NONAME
	_ZTIN4java4util14FunctionServerE @ 107 NONAME ; #<TI>#
	_ZTIN4java4util16DynamicLibLoaderE @ 108 NONAME ; #<TI>#
	_ZTIN4java4util7MonitorE @ 109 NONAME ; #<TI>#
	_ZTIN4java7runtime15ApplicationInfoE @ 110 NONAME ; #<TI>#
	_ZTVN4java4util14FunctionServerE @ 111 NONAME ; #<VT>#
	_ZTVN4java4util16DynamicLibLoaderE @ 112 NONAME ; #<VT>#
	_ZTVN4java4util7MonitorE @ 113 NONAME ; #<VT>#
	_ZTVN4java7runtime15ApplicationInfoE @ 114 NONAME ; #<VT>#
	_ZN4java4util16DynamicLibLoaderC1EPKcb @ 115 NONAME
	_ZN4java4util16DynamicLibLoaderC2EPKcb @ 116 NONAME
	_ZN4java4util14S60CommonUtils25ResourceLanguageFileNameLERK7TDesC16 @ 117 NONAME
	_ZN4java4util14S60CommonUtils17VerifiedFileNameLERK7TDesC16 @ 118 NONAME
	_ZN4java4util11JavaOsLayer13bootClassPathERSt4listISbIwSt11char_traitsIwESaIwEESaIS6_EES9_i @ 119 NONAME
	_ZN4java4util15JavaCommonUtils13percentDecodeERKSbIwSt11char_traitsIwESaIwEE @ 120 NONAME
	_ZN4java4util10Redirector3logERK6TDesC8 @ 121 NONAME
	_ZN4java4util10Redirector5closeEv @ 122 NONAME
	_ZN4java4util10Redirector7connectEv @ 123 NONAME
	_ZN4java4util10Redirector9systemErrERK6TDesC8 @ 124 NONAME
	_ZN4java4util10Redirector9systemOutERK6TDesC8 @ 125 NONAME
	_ZN4java4util10RedirectorC1Ev @ 126 NONAME
	_ZN4java4util10RedirectorC2Ev @ 127 NONAME
	_ZN4java4util10RedirectorD0Ev @ 128 NONAME
	_ZN4java4util10RedirectorD1Ev @ 129 NONAME
	_ZN4java4util10RedirectorD2Ev @ 130 NONAME
	_ZN4java4util15CRedirectServer6StartLEv @ 131 NONAME
	_ZN4java4util15CRedirectServerC1ERNS_5debug18DiagnosticListenerE @ 132 NONAME
	_ZN4java4util15CRedirectServerC2ERNS_5debug18DiagnosticListenerE @ 133 NONAME
	_ZN4java4util15CRedirectServerD0Ev @ 134 NONAME
	_ZN4java4util15CRedirectServerD1Ev @ 135 NONAME
	_ZN4java4util15CRedirectServerD2Ev @ 136 NONAME
	_ZNK4java4util13ExceptionBase8toStringEv @ 137 NONAME
	_ZTIN4java4util13ExceptionBaseE @ 138 NONAME
	_ZTVN4java4util13ExceptionBaseE @ 139 NONAME
	_ZN4java4util13ExceptionBaseC1ERKS1_ @ 140 NONAME
	_ZN4java4util13ExceptionBaseC2ERKS1_ @ 141 NONAME
	_ZNK4java4util13ExceptionBase4whatEv @ 142 NONAME
	_ZN4java4util22LibraryLoaderExceptionC1EiRKSsS3_S3_i @ 143 NONAME
	_ZN4java4util22LibraryLoaderExceptionC1EiiRKSsS3_S3_i @ 144 NONAME
	_ZN4java4util22LibraryLoaderExceptionC2EiRKSsS3_S3_i @ 145 NONAME
	_ZN4java4util22LibraryLoaderExceptionC2EiiRKSsS3_S3_i @ 146 NONAME
	_ZN4java4util22LibraryLoaderExceptionD0Ev @ 147 NONAME
	_ZN4java4util22LibraryLoaderExceptionD1Ev @ 148 NONAME
	_ZN4java4util22LibraryLoaderExceptionD2Ev @ 149 NONAME
	_ZTIN4java4util22LibraryLoaderExceptionE @ 150 NONAME
	_ZTVN4java4util22LibraryLoaderExceptionE @ 151 NONAME
	_ZN4java4util14FunctionServer12doAttachToVmEP7JavaVM_P8_jobject @ 152 NONAME ABSENT
	_ZN4java4util14FunctionServer14doDetachFromVmEv @ 153 NONAME ABSENT
	_ZN4java4util14FunctionServer22serverThreadEntryPointEPv @ 154 NONAME ABSENT
	_ZN4java4util14FunctionServer4initEv @ 155 NONAME ABSENT
	_ZN4java4util13ExceptionBaseC1ERKSbIwSt11char_traitsIwESaIwEERKSsS9_i @ 156 NONAME
	_ZN4java4util13ExceptionBaseC1ERKSsS3_S3_i @ 157 NONAME
	_ZN4java4util13ExceptionBaseC1EiRKSbIwSt11char_traitsIwESaIwEERKSsS9_i @ 158 NONAME
	_ZN4java4util13ExceptionBaseC1EiRKSsS3_S3_i @ 159 NONAME
	_ZN4java4util13ExceptionBaseC1EiiRKSbIwSt11char_traitsIwESaIwEERKSsS9_i @ 160 NONAME
	_ZN4java4util13ExceptionBaseC1EiiRKSsS3_S3_i @ 161 NONAME
	_ZN4java4util13ExceptionBaseC2ERKSbIwSt11char_traitsIwESaIwEERKSsS9_i @ 162 NONAME
	_ZN4java4util13ExceptionBaseC2ERKSsS3_S3_i @ 163 NONAME
	_ZN4java4util13ExceptionBaseC2EiRKSbIwSt11char_traitsIwESaIwEERKSsS9_i @ 164 NONAME
	_ZN4java4util13ExceptionBaseC2EiRKSsS3_S3_i @ 165 NONAME
	_ZN4java4util13ExceptionBaseC2EiiRKSbIwSt11char_traitsIwESaIwEERKSsS9_i @ 166 NONAME
	_ZN4java4util13ExceptionBaseC2EiiRKSsS3_S3_i @ 167 NONAME
	_ZN4java4util13ExceptionBaseD0Ev @ 168 NONAME
	_ZN4java4util13ExceptionBaseD1Ev @ 169 NONAME
	_ZN4java4util13ExceptionBaseD2Ev @ 170 NONAME
	_ZN4java4util14FunctionServer21executeInServerThreadERK7Functor @ 171 NONAME ABSENT
	_ZN4java7runtime16RuntimeExceptionC1ERKSsS3_S3_i @ 172 NONAME
	_ZN4java7runtime16RuntimeExceptionC2ERKSsS3_S3_i @ 173 NONAME
	_ZN4java7runtime16RuntimeExceptionD0Ev @ 174 NONAME
	_ZN4java7runtime16RuntimeExceptionD1Ev @ 175 NONAME
	_ZN4java7runtime16RuntimeExceptionD2Ev @ 176 NONAME
	_ZNK4java7runtime16RuntimeException8toStringEv @ 177 NONAME
	_ZTIN4java7runtime16RuntimeExceptionE @ 178 NONAME
	_ZTVN4java7runtime16RuntimeExceptionE @ 179 NONAME
	
	
