EXPORTS
	?jni_lookup@@YAP6AXXZPBD@Z @ 1 NONAME ; void (*)(void) jni_lookup(char const *)
	?AddLevelL@CMMAVolumeControl@@QAEHXZ @ 2 NONAME ; int CMMAVolumeControl::AddLevelL(void)
	?AddStateListenerL@CMMAPlayer@@QAEXPAVMMMAPlayerStateListener@@@Z @ 3 NONAME ; void CMMAPlayer::AddStateListenerL(class MMMAPlayerStateListener *)
	?Control@CMMAPlayer@@QAEPAVCMMAControl@@H@Z @ 4 NONAME ; class CMMAControl * CMMAPlayer::Control(int)
	?ControlCount@CMMAPlayer@@QAEHXZ @ 5 NONAME ; int CMMAPlayer::ControlCount(void)
	?Controller@CMMAMMFPlayerBase@@QAEAAVRMMFController@@XZ @ 6 NONAME ; class RMMFController & CMMAMMFPlayerBase::Controller(void)
	?MidiClient@CMMAMIDIPlayer@@QBEPAVCMidiClientUtility@@XZ @ 7 NONAME ; class CMidiClientUtility * CMMAMIDIPlayer::MidiClient(void) const
	?Players@CMMAEventSource@@QAEAAV?$RPointerArray@VCMMAPlayer@@@@XZ @ 8 NONAME ; class RPointerArray<class CMMAPlayer> & CMMAEventSource::Players(void)
	?PostStringEvent@CMMAPlayer@@QAEXW4TEventType@CMMAPlayerEvent@@ABVTDesC16@@@Z @ 9 NONAME ; void CMMAPlayer::PostStringEvent(enum CMMAPlayerEvent::TEventType, class TDesC16 const &)
	?PublicClassName@CMMAControl@@UBEABVTDesC16@@XZ @ 10 NONAME ; class TDesC16 const & CMMAControl::PublicClassName(void) const
	?RemoveStateListener@CMMAPlayer@@QAEXPAVMMMAPlayerStateListener@@@Z @ 11 NONAME ; void CMMAPlayer::RemoveStateListener(class MMMAPlayerStateListener *)
	?SetPlayerInstanceObserver@CMMAEventSource@@QAEXPAVMMMAPlayerInstanceObserver@@@Z @ 12 NONAME ; void CMMAEventSource::SetPlayerInstanceObserver(class MMMAPlayerInstanceObserver *)
	?SetVolumeLevelL@CMMAVolumeControl@@QAEXHH@Z @ 13 NONAME ; void CMMAVolumeControl::SetVolumeLevelL(int, int)
	?StaticAddObjectFromHandleL@CMMAEventSource@@SAXPAV1@H@Z @ 14 NONAME ; void CMMAEventSource::StaticAddObjectFromHandleL(class CMMAEventSource *, int)
	?StaticControl@CMMAPlayer@@SAPAVCMMAControl@@PAV1@H@Z @ 15 NONAME ; class CMMAControl * CMMAPlayer::StaticControl(class CMMAPlayer *, int)
	?PostActionCompleted@CMMAPlayer@@QAEXH@Z @ 16 NONAME ; void CMMAPlayer::PostActionCompleted(int)
	?PostObjectEvent@CMMAPlayer@@QAEXW4TEventType@CMMAPlayerEvent@@PAV_jobject@@@Z @ 17 NONAME ; void CMMAPlayer::PostObjectEvent(enum CMMAPlayerEvent::TEventType, class _jobject *)
	??0CMMAMMFPlayerFactory@@QAE@XZ @ 18 NONAME ; CMMAMMFPlayerFactory::CMMAMMFPlayerFactory(void)
	??0CMMAVideoControl@@QAE@PAVMMMAGuiPlayer@@@Z @ 19 NONAME ; CMMAVideoControl::CMMAVideoControl(class MMMAGuiPlayer *)
	??0CMMAVideoUrlPlayer@@IAE@PAVCMMAMMFResolver@@@Z @ 20 NONAME ; CMMAVideoUrlPlayer::CMMAVideoUrlPlayer(class CMMAMMFResolver *)
	??1CMMAMMFPlayerFactory@@UAE@XZ @ 21 NONAME ; CMMAMMFPlayerFactory::~CMMAMMFPlayerFactory(void)
	??1CMMAVideoControl@@UAE@XZ @ 22 NONAME ; CMMAVideoControl::~CMMAVideoControl(void)
	??1CMMAVideoUrlPlayer@@UAE@XZ @ 23 NONAME ; CMMAVideoUrlPlayer::~CMMAVideoUrlPlayer(void)
	?AddControlL@CMMAPlayer@@UAEXPAVCMMAControl@@@Z @ 24 NONAME ; void CMMAPlayer::AddControlL(class CMMAControl *)
	?AddPlayerFactoryL@CMMAManager@@QAEXPAVMMMAPlayerFactory@@@Z @ 25 NONAME ; void CMMAManager::AddPlayerFactoryL(class MMMAPlayerFactory *)
	?AddSourceStreamL@CMMAPlayer@@MAEPAVCMMASourceStream@@PAUJNIEnv_@@PAVCMMAEventSource@@PAV_jobject@@@Z @ 26 NONAME ; class CMMASourceStream * CMMAPlayer::AddSourceStreamL(struct JNIEnv_ *, class CMMAEventSource *, class _jobject *)
	?ClassName@CMMAVideoControl@@UBEABVTDesC16@@XZ @ 27 NONAME ; class TDesC16 const & CMMAVideoControl::ClassName(void) const
	?CloseL@CMMAVideoUrlPlayer@@UAEXXZ @ 28 NONAME ; void CMMAVideoUrlPlayer::CloseL(void)
	?ConstructL@CMMAVideoUrlPlayer@@IAEXABVTDesC16@@@Z @ 29 NONAME ; void CMMAVideoUrlPlayer::ConstructL(class TDesC16 const &)
	?CreatePlayerL@CMMAMMFPlayerFactory@@MAEPAVCMMAPlayer@@PAVCMMFFormatSelectionParameters@@PBVTDesC16@@@Z @ 30 NONAME ; class CMMAPlayer * CMMAMMFPlayerFactory::CreatePlayerL(class CMMFFormatSelectionParameters *, class TDesC16 const *)
	?DeallocateL@CMMAVideoUrlPlayer@@UAEXXZ @ 31 NONAME ; void CMMAVideoUrlPlayer::DeallocateL(void)
	?DoOpen@CMMAMMFPlayerBase@@MAEHVTUid@@ABVTDesC8@@01VTMMFPrioritySettings@@@Z @ 32 NONAME ; int CMMAMMFPlayerBase::DoOpen(class TUid, class TDesC8 const &, class TUid, class TDesC8 const &, class TMMFPrioritySettings)
	?ErrorPlaybackComplete@CMMAAudioPlayer@@UAEXH@Z @ 33 NONAME ; void CMMAAudioPlayer::ErrorPlaybackComplete(int)
	?GetDuration@CMMAMMFPlayerBase@@UAEXPA_J@Z @ 34 NONAME ; void CMMAMMFPlayerBase::GetDuration(long long *)
	?GetMediaTime@CMMAVideoUrlPlayer@@UAEXPA_J@Z @ 35 NONAME ; void CMMAVideoUrlPlayer::GetMediaTime(long long *)
	?HandleEvent@CMMAVideoUrlPlayer@@MAEXABVTMMFEvent@@@Z @ 36 NONAME ; void CMMAVideoUrlPlayer::HandleEvent(class TMMFEvent const &)
	?HandleForegroundL@CMMAVideoControl@@UAEXH@Z @ 37 NONAME ; void CMMAVideoControl::HandleForegroundL(int)
	?HandlePlaybackCompleteL@CMMAAudioPlayer@@UAEXXZ @ 38 NONAME ; void CMMAAudioPlayer::HandlePlaybackCompleteL(void)
	?HandleResourceChangeL@CMMAVideoControl@@UAEXH@Z @ 39 NONAME ; void CMMAVideoControl::HandleResourceChangeL(int)
	?HandleSwitchOnL@CMMAVideoControl@@UAEXH@Z @ 40 NONAME ; void CMMAVideoControl::HandleSwitchOnL(int)
	?NewL@CMMAAudioVolumeControl@@SAPAV1@PAVCMMAAudioPlayer@@@Z @ 41 NONAME ; class CMMAAudioVolumeControl * CMMAAudioVolumeControl::NewL(class CMMAAudioPlayer *)
	?NotifyWithStringEvent@CMMAVideoPlayer@@UAEXW4TEventType@CMMAPlayerEvent@@ABVTDesC16@@@Z @ 42 NONAME ; void CMMAVideoPlayer::NotifyWithStringEvent(enum CMMAPlayerEvent::TEventType, class TDesC16 const &)
	?PlayCompleteL@CMMAAudioPlayer@@MAEXH@Z @ 43 NONAME ; void CMMAAudioPlayer::PlayCompleteL(int)
	?PrefetchDataL@CMMAAudioPlayer@@MAEXABVTDesC8@@@Z @ 44 NONAME ; void CMMAAudioPlayer::PrefetchDataL(class TDesC8 const &)
	?PrefetchFileL@CMMAAudioPlayer@@MAEXXZ @ 45 NONAME ; void CMMAAudioPlayer::PrefetchFileL(void)
	?PrefetchL@CMMAVideoUrlPlayer@@UAEXXZ @ 46 NONAME ; void CMMAVideoUrlPlayer::PrefetchL(void)
	?PreparePluginSelectionParametersL@CMMAMMFPlayerFactory@@MAEXPAVCMMAMMFResolver@@PAVCMMFFormatSelectionParameters@@@Z @ 47 NONAME ; void CMMAMMFPlayerFactory::PreparePluginSelectionParametersL(class CMMAMMFResolver *, class CMMFFormatSelectionParameters *)
	?ReadCompletedL@CMMAVideoPlayer@@MAEXHABVTDesC8@@@Z @ 48 NONAME ; void CMMAVideoPlayer::ReadCompletedL(int, class TDesC8 const &)
	?RealizeL@CMMAVideoUrlPlayer@@UAEXXZ @ 49 NONAME ; void CMMAVideoUrlPlayer::RealizeL(void)
	?SetDisplayL@CMMAVideoPlayer@@UAEXPAVMMMADisplay@@@Z @ 50 NONAME ; void CMMAVideoPlayer::SetDisplayL(class MMMADisplay *)
	?SetLoopCount@CMMAPlayer@@UAEXH@Z @ 51 NONAME ; void CMMAPlayer::SetLoopCount(int)
	?SetPlayerListenerObjectL@CMMAVideoPlayer@@UAEXPAV_jobject@@PAUJNIEnv_@@PAVMMMAEventPoster@@@Z @ 52 NONAME ; void CMMAVideoPlayer::SetPlayerListenerObjectL(class _jobject *, struct JNIEnv_ *, class MMMAEventPoster *)
	?SnapshotBitmap@CMMAVideoPlayer@@UAEPAVCFbsBitmap@@XZ @ 53 NONAME ; class CFbsBitmap * CMMAVideoPlayer::SnapshotBitmap(void)
	?SnapshotEncoded@CMMAVideoPlayer@@UAEPAVHBufC8@@XZ @ 54 NONAME ; class HBufC8 * CMMAVideoPlayer::SnapshotEncoded(void)
	?SnapshotReady@CMMAVideoControl@@UAEXXZ @ 55 NONAME ; void CMMAVideoControl::SnapshotReady(void)
	?SnapshoterL@CMMAVideoPlayer@@UAEPAVMMMASnapshot@@XZ @ 56 NONAME ; class MMMASnapshot * CMMAVideoPlayer::SnapshoterL(void)
	?SourceSize@CMMAVideoPlayer@@UAE?AVTSize@@XZ @ 57 NONAME ; class TSize CMMAVideoPlayer::SourceSize(void)
	?StartL@CMMAVideoUrlPlayer@@UAEXXZ @ 58 NONAME ; void CMMAVideoUrlPlayer::StartL(void)
	?StopL@CMMAVideoUrlPlayer@@UAEXH@Z @ 59 NONAME ; void CMMAVideoUrlPlayer::StopL(int)
	?TakeSnapshotL@CMMAVideoPlayer@@UAE?AW4TEncoding@MMMASnapshot@@PAVTRequestStatus@@ABVTSize@@ABVCMMAImageSettings@@@Z @ 60 NONAME ; enum MMMASnapshot::TEncoding CMMAVideoPlayer::TakeSnapshotL(class TRequestStatus *, class TSize const &, class CMMAImageSettings const &)
	?Type@CMMAVideoPlayer@@MAEABVTDesC16@@XZ @ 61 NONAME ; class TDesC16 const & CMMAVideoPlayer::Type(void)

