EXPORTS
	?jni_lookup@@YAP6AXXZPBD@Z @ 1 NONAME ; void (*)(void) jni_lookup(char const *)
	?AddLevelL@CMMAVolumeControl@@QAEHXZ @ 2 NONAME ; int CMMAVolumeControl::AddLevelL(void)
	?AddStateListenerL@CMMAPlayer@@QAEXPAVMMMAPlayerStateListener@@@Z @ 3 NONAME ; void CMMAPlayer::AddStateListenerL(class MMMAPlayerStateListener *)
	?Control@CMMAPlayer@@QAEPAVCMMAControl@@H@Z @ 4 NONAME ; class CMMAControl * CMMAPlayer::Control(int)
	?ControlCount@CMMAPlayer@@QAEHXZ @ 5 NONAME ; int CMMAPlayer::ControlCount(void)
	?Controller@CMMAMMFPlayerBase@@QAEAAVRMMFController@@XZ @ 6 NONAME ; class RMMFController & CMMAMMFPlayerBase::Controller(void)
	?MidiClient@CMMAMIDIPlayer@@QBEPAVCMidiClientUtility@@XZ @ 7 NONAME ; class CMidiClientUtility * CMMAMIDIPlayer::MidiClient(void) const
	?Players@CMMAEventSource@@QAEAAV?$RPointerArray@VCMMAPlayer@@@@XZ @ 8 NONAME ; class RPointerArray<class CMMAPlayer> & CMMAEventSource::Players(void)
	?PostStringEvent@CMMAPlayer@@QAEXW4TEventType@CMMAPlayerEvent@@ABVTDesC16@@@Z @ 9 NONAME ; void CMMAPlayer::PostStringEvent(enum CMMAPlayerEvent::TEventType, class TDesC16 const &)
	?PublicClassName@CMMAControl@@UBEABVTDesC16@@XZ @ 10 NONAME ; class TDesC16 const & CMMAControl::PublicClassName(void) const
	?RemoveStateListener@CMMAPlayer@@QAEXPAVMMMAPlayerStateListener@@@Z @ 11 NONAME ; void CMMAPlayer::RemoveStateListener(class MMMAPlayerStateListener *)
	?SetPlayerInstanceObserver@CMMAEventSource@@QAEXPAVMMMAPlayerInstanceObserver@@@Z @ 12 NONAME ; void CMMAEventSource::SetPlayerInstanceObserver(class MMMAPlayerInstanceObserver *)
	?SetVolumeLevelL@CMMAVolumeControl@@QAEXHH@Z @ 13 NONAME ; void CMMAVolumeControl::SetVolumeLevelL(int, int)
	?StaticAddObjectFromHandleL@CMMAEventSource@@SAXPAV1@H@Z @ 14 NONAME ; void CMMAEventSource::StaticAddObjectFromHandleL(class CMMAEventSource *, int)
	?StaticControl@CMMAPlayer@@SAPAVCMMAControl@@PAV1@H@Z @ 15 NONAME ; class CMMAControl * CMMAPlayer::StaticControl(class CMMAPlayer *, int)
	?StreamControl@CMMAEMCPlayerBase@@QAEPAVMStreamControl@multimedia@@XZ @ 16 NONAME
	?MMFactory@CMMAEMCPlayerBase@@QAEPAVCMultimediaFactory@multimedia@@XZ @ 17 NONAME
	?DoSetLevelL@CMMAEMCAudioVolumeControl@@UAEXH@Z @ 18 NONAME ; void CMMAEMCAudioVolumeControl::DoSetLevelL(int)
	??0CMMAEMCAudioPlayer@@IAE@PAVCMMAEMCResolver@@@Z @ 19 NONAME ; CMMAEMCAudioPlayer::CMMAEMCAudioPlayer(class CMMAEMCResolver *)
	?AddPlayerFactoryL@CMMAManager@@QAEXPAVMMMAPlayerFactory@@@Z @ 20 NONAME ; void CMMAManager::AddPlayerFactoryL(class MMMAPlayerFactory *)
	?PrefetchFileL@CMMAEMCAudioPlayer@@MAEXXZ @ 21 NONAME ; void CMMAEMCAudioPlayer::PrefetchFileL(void)
	??1CMMAEMCAudioPlayer@@UAE@XZ @ 22 NONAME ; CMMAEMCAudioPlayer::~CMMAEMCAudioPlayer(void)
	?DoGetLevelL@CMMAEMCAudioVolumeControl@@UAEHXZ @ 23 NONAME ; int CMMAEMCAudioVolumeControl::DoGetLevelL(void)
	?Type@CMMAEMCAudioPlayer@@UAEABVTDesC16@@XZ @ 24 NONAME ; class TDesC16 const & CMMAEMCAudioPlayer::Type(void)
	?ReadCompletedL@CMMAEMCAudioPlayer@@UAEXHABVTDesC8@@@Z @ 25 NONAME ; void CMMAEMCAudioPlayer::ReadCompletedL(int, class TDesC8 const &)
	??0CMMAEMCAudioVolumeControl@@IAE@AAVCMMAEMCAudioPlayer@@@Z @ 26 NONAME ; CMMAEMCAudioVolumeControl::CMMAEMCAudioVolumeControl(class CMMAEMCAudioPlayer &)
	?NewL@CMMAEMCAudioVolumeControl@@SAPAV1@AAVCMMAEMCAudioPlayer@@@Z @ 27 NONAME ; class CMMAEMCAudioVolumeControl * CMMAEMCAudioVolumeControl::NewL(class CMMAEMCAudioPlayer &)
	?PostActionCompleted@CMMAPlayer@@QAEXH@Z @ 28 NONAME ; void CMMAPlayer::PostActionCompleted(int)
	?RealizeL@CMMAEMCAudioPlayer@@UAEXXZ @ 29 NONAME ; void CMMAEMCAudioPlayer::RealizeL(void)
	?ConstructL@CMMAEMCAudioPlayer@@IAEXXZ @ 30 NONAME ; void CMMAEMCAudioPlayer::ConstructL(void)
	?PrefetchL@CMMAEMCAudioPlayer@@UAEXXZ @ 31 NONAME ; void CMMAEMCAudioPlayer::PrefetchL(void)
	?PlayCompleteL@CMMAEMCAudioPlayer@@MAEXH@Z @ 32 NONAME ; void CMMAEMCAudioPlayer::PlayCompleteL(int)
	?PrefetchDataL@CMMAEMCAudioPlayer@@MAEXABVTDesC8@@@Z @ 33 NONAME ; void CMMAEMCAudioPlayer::PrefetchDataL(class TDesC8 const &)
	?PostObjectEvent@CMMAPlayer@@QAEXW4TEventType@CMMAPlayerEvent@@PAV_jobject@@@Z @ 34 NONAME ; void CMMAPlayer::PostObjectEvent(enum CMMAPlayerEvent::TEventType, class _jobject *)
	?SetLoopCount@CMMAPlayer@@UAEXH@Z @ 35 NONAME ; void CMMAPlayer::SetLoopCount(int)
	?AddControlL@CMMAPlayer@@UAEXPAVCMMAControl@@@Z @ 36 NONAME ; void CMMAPlayer::AddControlL(class CMMAControl *)
	?NotifyWithStringEvent@CMMAVideoPlayer@@UAEXW4TEventType@CMMAPlayerEvent@@ABVTDesC16@@@Z @ 37 NONAME ; void CMMAVideoPlayer::NotifyWithStringEvent(enum CMMAPlayerEvent::TEventType, class TDesC16 const &)
	?AddSourceStreamL@CMMAPlayer@@MAEPAVCMMASourceStream@@PAUJNIEnv_@@PAVCMMAEventSource@@PAV_jobject@@@Z @ 38 NONAME ; class CMMASourceStream * CMMAPlayer::AddSourceStreamL(struct JNIEnv_ *, class CMMAEventSource *, class _jobject *)
	?SnapshotEncoded@CMMAVideoPlayer@@UAEPAVHBufC8@@XZ @ 39 NONAME ; class HBufC8 * CMMAVideoPlayer::SnapshotEncoded(void)
	?DoOpen@CMMAMMFPlayerBase@@MAEHVTUid@@ABVTDesC8@@01VTMMFPrioritySettings@@@Z @ 40 NONAME ; int CMMAMMFPlayerBase::DoOpen(class TUid, class TDesC8 const &, class TUid, class TDesC8 const &, class TMMFPrioritySettings)
	?Type@CMMAVideoPlayer@@MAEABVTDesC16@@XZ @ 41 NONAME ; class TDesC16 const & CMMAVideoPlayer::Type(void)
	?PrefetchDataL@CMMAAudioPlayer@@MAEXABVTDesC8@@@Z @ 42 NONAME ; void CMMAAudioPlayer::PrefetchDataL(class TDesC8 const &)
	??0CMMAVideoUrlPlayer@@IAE@PAVCMMAMMFResolver@@@Z @ 43 NONAME ; CMMAVideoUrlPlayer::CMMAVideoUrlPlayer(class CMMAMMFResolver *)
	?CloseL@CMMAVideoUrlPlayer@@UAEXXZ @ 44 NONAME ; void CMMAVideoUrlPlayer::CloseL(void)
	?SnapshotBitmap@CMMAVideoPlayer@@UAEPAVCFbsBitmap@@XZ @ 45 NONAME ; class CFbsBitmap * CMMAVideoPlayer::SnapshotBitmap(void)
	?HandleResourceChangeL@CMMAVideoControl@@UAEXH@Z @ 46 NONAME ; void CMMAVideoControl::HandleResourceChangeL(int)
	?StartL@CMMAVideoUrlPlayer@@UAEXXZ @ 47 NONAME ; void CMMAVideoUrlPlayer::StartL(void)
	?HandleForegroundL@CMMAVideoControl@@UAEXH@Z @ 48 NONAME ; void CMMAVideoControl::HandleForegroundL(int)
	?HandleEvent@CMMAVideoUrlPlayer@@MAEXABVTMMFEvent@@@Z @ 49 NONAME ; void CMMAVideoUrlPlayer::HandleEvent(class TMMFEvent const &)
	?ConstructL@CMMAVideoUrlPlayer@@IAEXABVTDesC16@@@Z @ 50 NONAME ; void CMMAVideoUrlPlayer::ConstructL(class TDesC16 const &)
	?SetDisplayL@CMMAVideoPlayer@@UAEXPAVMMMADisplay@@@Z @ 51 NONAME ; void CMMAVideoPlayer::SetDisplayL(class MMMADisplay *)
	?TakeSnapshotL@CMMAVideoPlayer@@UAE?AW4TEncoding@MMMASnapshot@@PAVTRequestStatus@@ABVTSize@@ABVCMMAImageSettings@@@Z @ 52 NONAME ; enum MMMASnapshot::TEncoding CMMAVideoPlayer::TakeSnapshotL(class TRequestStatus *, class TSize const &, class CMMAImageSettings const &)
	?SnapshotReady@CMMAVideoControl@@UAEXXZ @ 53 NONAME ; void CMMAVideoControl::SnapshotReady(void)
	?CreatePlayerL@CMMAMMFPlayerFactory@@MAEPAVCMMAPlayer@@PAVCMMFFormatSelectionParameters@@PBVTDesC16@@@Z @ 54 NONAME ; class CMMAPlayer * CMMAMMFPlayerFactory::CreatePlayerL(class CMMFFormatSelectionParameters *, class TDesC16 const *)
	?NewL@CMMAAudioVolumeControl@@SAPAV1@PAVCMMAAudioPlayer@@@Z @ 55 NONAME ; class CMMAAudioVolumeControl * CMMAAudioVolumeControl::NewL(class CMMAAudioPlayer *)
	?HandlePlaybackCompleteL@CMMAAudioPlayer@@UAEXXZ @ 56 NONAME ; void CMMAAudioPlayer::HandlePlaybackCompleteL(void)
	??1CMMAVideoUrlPlayer@@UAE@XZ @ 57 NONAME ; CMMAVideoUrlPlayer::~CMMAVideoUrlPlayer(void)
	?ErrorPlaybackComplete@CMMAAudioPlayer@@UAEXH@Z @ 58 NONAME ; void CMMAAudioPlayer::ErrorPlaybackComplete(int)
	?PreparePluginSelectionParametersL@CMMAMMFPlayerFactory@@MAEXPAVCMMAMMFResolver@@PAVCMMFFormatSelectionParameters@@@Z @ 59 NONAME ; void CMMAMMFPlayerFactory::PreparePluginSelectionParametersL(class CMMAMMFResolver *, class CMMFFormatSelectionParameters *)
	?RealizeL@CMMAVideoUrlPlayer@@UAEXXZ @ 60 NONAME ; void CMMAVideoUrlPlayer::RealizeL(void)
	?SetPlayerListenerObjectL@CMMAVideoPlayer@@UAEXPAV_jobject@@PAUJNIEnv_@@PAVMMMAEventPoster@@@Z @ 61 NONAME ; void CMMAVideoPlayer::SetPlayerListenerObjectL(class _jobject *, struct JNIEnv_ *, class MMMAEventPoster *)
	?PlayCompleteL@CMMAAudioPlayer@@MAEXH@Z @ 62 NONAME ; void CMMAAudioPlayer::PlayCompleteL(int)
	?SourceSize@CMMAVideoPlayer@@UAE?AVTSize@@XZ @ 63 NONAME ; class TSize CMMAVideoPlayer::SourceSize(void)
	?SnapshoterL@CMMAVideoPlayer@@UAEPAVMMMASnapshot@@XZ @ 64 NONAME ; class MMMASnapshot * CMMAVideoPlayer::SnapshoterL(void)
	?GetDuration@CMMAMMFPlayerBase@@UAEXPA_J@Z @ 65 NONAME ; void CMMAMMFPlayerBase::GetDuration(long long *)
	??0CMMAVideoControl@@QAE@PAVMMMAGuiPlayer@@@Z @ 66 NONAME ; CMMAVideoControl::CMMAVideoControl(class MMMAGuiPlayer *)
	?ClassName@CMMAVideoControl@@UBEABVTDesC16@@XZ @ 67 NONAME ; class TDesC16 const & CMMAVideoControl::ClassName(void) const
	??1CMMAMMFPlayerFactory@@UAE@XZ @ 68 NONAME ; CMMAMMFPlayerFactory::~CMMAMMFPlayerFactory(void)
	?ReadCompletedL@CMMAVideoPlayer@@MAEXHABVTDesC8@@@Z @ 69 NONAME ; void CMMAVideoPlayer::ReadCompletedL(int, class TDesC8 const &)
	?GetMediaTime@CMMAVideoUrlPlayer@@UAEXPA_J@Z @ 70 NONAME ; void CMMAVideoUrlPlayer::GetMediaTime(long long *)
	?DeallocateL@CMMAVideoUrlPlayer@@UAEXXZ @ 71 NONAME ; void CMMAVideoUrlPlayer::DeallocateL(void)
	??0CMMAMMFPlayerFactory@@QAE@XZ @ 72 NONAME ; CMMAMMFPlayerFactory::CMMAMMFPlayerFactory(void)
	?PrefetchFileL@CMMAAudioPlayer@@MAEXXZ @ 73 NONAME ; void CMMAAudioPlayer::PrefetchFileL(void)
	?PrefetchL@CMMAVideoUrlPlayer@@UAEXXZ @ 74 NONAME ; void CMMAVideoUrlPlayer::PrefetchL(void)
	?StopL@CMMAVideoUrlPlayer@@UAEXH@Z @ 75 NONAME ; void CMMAVideoUrlPlayer::StopL(int)
	?HandleSwitchOnL@CMMAVideoControl@@UAEXH@Z @ 76 NONAME ; void CMMAVideoControl::HandleSwitchOnL(int)
	??1CMMAVideoControl@@UAE@XZ @ 77 NONAME ; CMMAVideoControl::~CMMAVideoControl(void)

