EXPORTS
	?jni_lookup@@YAP6AXXZPBD@Z @ 1 NONAME ; void (*)(void) jni_lookup(char const *)
	?GetValidJniRef@JniEnvWrapper@@SAPAUJNIEnv_@@XZ @ 2 NONAME ; struct JNIEnv_ * JniEnvWrapper::GetValidJniRef(void)
	??0CJavaEventSourceBase@@IAE@XZ @ 3 NONAME ; CJavaEventSourceBase::CJavaEventSourceBase(void)
	??0CJesServer@@QAE@PAVMJesShutdown@@@Z @ 4 NONAME ; CJesServer::CJesServer(class MJesShutdown *)
	??0RJString@@QAE@AAUJNIEnv_@@PAV_jstring@@@Z @ 5 NONAME ; RJString::RJString(struct JNIEnv_ &, class _jstring *)
	??0TConstructorBase@CJavaEventSourceBase@@IAE@PAV1@AAUJNIEnv_@@@Z @ 6 NONAME ; CJavaEventSourceBase::TConstructorBase::TConstructorBase(class CJavaEventSourceBase *, struct JNIEnv_ &)
	??1CJavaEventSourceBase@@MAE@XZ @ 7 NONAME ; CJavaEventSourceBase::~CJavaEventSourceBase(void)
	??1RJString@@QAE@XZ @ 8 NONAME ; RJString::~RJString(void)
	?CheckEvent@CJavaEventSourceBase@@MAEHPAVCJavaEventBase@@@Z @ 9 NONAME ; int CJavaEventSourceBase::CheckEvent(class CJavaEventBase *)
	?Close@CJavaEventSourceBase@@QAEXAAUJNIEnv_@@@Z @ 10 NONAME ; void CJavaEventSourceBase::Close(struct JNIEnv_ &)
	?ConstructL@CJavaEventSourceBase@@IAEXAAUJNIEnv_@@PAV_jobject@@VTJavaEventServer@@@Z @ 11 NONAME ; void CJavaEventSourceBase::ConstructL(struct JNIEnv_ &, class _jobject *, class TJavaEventServer)
	?CopyToJava@ArrayUtils@@SAHAAUJNIEnv_@@ABVTDesC8@@PAV_jbyteArray@@HH@Z @ 12 NONAME ; int ArrayUtils::CopyToJava(struct JNIEnv_ &, class TDesC8 const &, class _jbyteArray *, int, int)
	?CopyToNewJavaStringArrayL@@YAPAV_jobjectArray@@AAUJNIEnv_@@ABVCDesC16Array@@@Z @ 13 NONAME ; class _jobjectArray * CopyToNewJavaStringArrayL(struct JNIEnv_ &, class CDesC16Array const &)
	?CreateEpocTTime@JavaEpocTime@@SA?AVTTime@@_J@Z @ 14 NONAME ; class TTime JavaEpocTime::CreateEpocTTime(long long)
	?CreateJavaString@@YAPAV_jstring@@AAUJNIEnv_@@ABVTDesC16@@@Z @ 15 NONAME ; class _jstring * CreateJavaString(struct JNIEnv_ &, class TDesC16 const &)
	?CreateJavaTime@JavaEpocTime@@SA_JVTTime@@@Z @ 16 NONAME ; long long JavaEpocTime::CreateJavaTime(class TTime)
	?DoExecute@CJavaEventSourceBase@@AAAHPAXZZ @ 17 NONAME ; int CJavaEventSourceBase::DoExecute(void *, ...)
	?DoExecuteTrap@CJavaEventSourceBase@@AAAHPAXZZ @ 18 NONAME ; int CJavaEventSourceBase::DoExecuteTrap(void *, ...)
	?DoPostEvent@CJavaEventSourceBase@@IAEHPAVCJavaEventBase@@H@Z @ 19 NONAME ; int CJavaEventSourceBase::DoPostEvent(class CJavaEventBase *, int)
	?FinalizeJni@CJavaEventSourceBase@@EAEXAAUJNIEnv_@@@Z @ 20 NONAME ; void CJavaEventSourceBase::FinalizeJni(struct JNIEnv_ &)
	?FinalizeSvr@CJavaEventSourceBase@@EAEXXZ @ 21 NONAME ; void CJavaEventSourceBase::FinalizeSvr(void)
	?NewL@TJavaEventServer@@SA?AV1@ABVTDesC16@@P6AHPAX@Z1@Z @ 22 NONAME ; class TJavaEventServer TJavaEventServer::NewL(class TDesC16 const &, int (*)(void *), void *)
	?NewL@TJavaEventServer@@SA?AV1@ABVTDesC16@@P6AHPAX@Z1IPAVRAllocator@@@Z @ 23 NONAME ; class TJavaEventServer TJavaEventServer::NewL(class TDesC16 const &, int (*)(void *), void *, unsigned int, class RAllocator *)
	?Panic@CJavaEventSourceBase@@CAXH@Z @ 24 NONAME ; void CJavaEventSourceBase::Panic(int)
	?Shutdown@TJavaEventServer@@QAEXXZ @ 25 NONAME ; void TJavaEventServer::Shutdown(void)
	?NewL@CTimeOutTimer@@SAPAV1@HAAVMTimeOutNotify@@@Z @ 26 NONAME ; class CTimeOutTimer * CTimeOutTimer::NewL(int, class MTimeOutNotify &)
