EXPORTS
	_Z13findDllMethodPKc @ 1 NONAME
	_ZN4java4push19PushRegistryHandlerC1Ev @ 2 NONAME
	_ZN4java4push19PushRegistryHandlerC2Ev @ 3 NONAME
	_ZN4java4push19PushRegistryHandlerD0Ev @ 4 NONAME
	_ZN4java4push19PushRegistryHandlerD1Ev @ 5 NONAME
	_ZN4java4push19PushRegistryHandlerD2Ev @ 6 NONAME
	_ZTIN4java4push11DbAlarmDataE @ 7 NONAME ; #<TI>#
	_ZTIN4java4push13PushDBHandlerE @ 8 NONAME ; #<TI>#
	_ZTIN4java4push16PushAlarmHandlerE @ 9 NONAME ; #<TI>#
	_ZTIN4java4push17PushDataContainerE @ 10 NONAME ; #<TI>#
	_ZTIN4java4push18PushTimerContainerE @ 11 NONAME ; #<TI>#
	_ZTVN4java4push11DbAlarmDataE @ 12 NONAME ; #<VT>#
	_ZTVN4java4push13PushDBHandlerE @ 13 NONAME ; #<VT>#
	_ZTVN4java4push16PushAlarmHandlerE @ 14 NONAME ; #<VT>#
	_ZTVN4java4push17PushDataContainerE @ 15 NONAME ; #<VT>#
	_ZTVN4java4push18PushTimerContainerE @ 16 NONAME ; #<VT>#
	_ZThn12_N4java4push19PushRegistryHandlerD0Ev @ 17 NONAME ; #<thunk>#
	_ZThn12_N4java4push19PushRegistryHandlerD1Ev @ 18 NONAME ; #<thunk>#
	_ZThn16_N4java4push19PushRegistryHandlerD0Ev @ 19 NONAME ; #<thunk>#
	_ZThn16_N4java4push19PushRegistryHandlerD1Ev @ 20 NONAME ; #<thunk>#
	_ZThn8_N4java4push19PushRegistryHandlerD0Ev @ 21 NONAME ; #<thunk>#
	_ZThn8_N4java4push19PushRegistryHandlerD1Ev @ 22 NONAME ; #<thunk>#
	_ZTIN4java4push22PushConnCompletedTimerE @ 23 NONAME
	_ZTIN4java4push31PushConnCompletedTimerContainerE @ 24 NONAME
	_ZTVN4java4push22PushConnCompletedTimerE @ 25 NONAME
	_ZTVN4java4push31PushConnCompletedTimerContainerE @ 26 NONAME
	_ZThn24_N4java4push19PushRegistryHandlerD0Ev @ 27 NONAME
	_ZThn24_N4java4push19PushRegistryHandlerD1Ev @ 28 NONAME

