EXPORTS
	_Z13findDllMethodPKc @ 1 NONAME
	_ZN26MmsServerConnectionFactory10getFactoryEv @ 2 NONAME
	_ZN26MmsServerConnectionFactory16createSrvConnObjERKSbIwSt11char_traitsIwESaIwEES5_ @ 3 NONAME
	_ZN26MmsServerConnectionFactory24isMultipleSrvConnAllowedEv @ 4 NONAME
	_ZN26MmsServerConnectionFactoryC1Ev @ 5 NONAME
	_ZN26MmsServerConnectionFactoryC2Ev @ 6 NONAME
	_ZN26MmsServerConnectionFactoryD0Ev @ 7 NONAME
	_ZN26MmsServerConnectionFactoryD1Ev @ 8 NONAME
	_ZN26MmsServerConnectionFactoryD2Ev @ 9 NONAME
	_ZN4java3wma22S60MmsServerConnection4openEPNS_4push18ConnectionListenerE @ 10 NONAME
	_ZN4java3wma22S60MmsServerConnection7setOpenEv @ 11 NONAME
	_ZN4java3wma22S60MmsServerConnection9setFilterERKSbIwSt11char_traitsIwESaIwEE @ 12 NONAME
	_ZN4java3wma22S60MmsServerConnectionC1ERKSbIwSt11char_traitsIwESaIwEES7_ @ 13 NONAME
	_ZN4java3wma22S60MmsServerConnectionC2ERKSbIwSt11char_traitsIwESaIwEES7_ @ 14 NONAME
	_ZNK4java3wma22S60MmsServerConnection6getUriEv @ 15 NONAME
	_ZNK4java3wma22S60MmsServerConnection9getFilterEv @ 16 NONAME
	_ZTI26MmsServerConnectionFactory @ 17 NONAME ; #<TI>#
	_ZTIN4java3wma22S60MmsServerConnectionE @ 18 NONAME ; #<TI>#
	_ZTV26MmsServerConnectionFactory @ 19 NONAME ; #<VT>#
	_ZTVN4java3wma22S60MmsServerConnectionE @ 20 NONAME ; #<VT>#
	_ZThn28_N4java3wma22S60MmsServerConnection4openEPNS_4push18ConnectionListenerE @ 21 NONAME ; #<thunk>#
	_ZThn28_N4java3wma22S60MmsServerConnection7setOpenEv @ 22 NONAME ; #<thunk>#
	_ZThn28_N4java3wma22S60MmsServerConnection9setFilterERKSbIwSt11char_traitsIwESaIwEE @ 23 NONAME ; #<thunk>#
	_ZThn28_NK4java3wma22S60MmsServerConnection6getUriEv @ 24 NONAME ; #<thunk>#
	_ZThn28_NK4java3wma22S60MmsServerConnection9getFilterEv @ 25 NONAME ; #<thunk>#
	_ZN4java3wma22S60MmsServerConnection5closeEv @ 26 NONAME
	_ZThn28_N4java3wma22S60MmsServerConnection5closeEv @ 27 NONAME
	_ZN4java3wma22S60MmsServerConnectionD0Ev @ 28 NONAME
	_ZN4java3wma22S60MmsServerConnectionD1Ev @ 29 NONAME
	_ZN4java3wma22S60MmsServerConnectionD2Ev @ 30 NONAME
	_ZThn28_N4java3wma22S60MmsServerConnectionD0Ev @ 31 NONAME
	_ZThn28_N4java3wma22S60MmsServerConnectionD1Ev @ 32 NONAME

